ARM GAS  C:\Users\louis\AppData\Local\Temp\ccZ2fpVL.s 			page 1


   1              		.cpu cortex-m7
   2              		.eabi_attribute 28, 1
   3              		.eabi_attribute 20, 1
   4              		.eabi_attribute 21, 1
   5              		.eabi_attribute 23, 3
   6              		.eabi_attribute 24, 1
   7              		.eabi_attribute 25, 1
   8              		.eabi_attribute 26, 1
   9              		.eabi_attribute 30, 2
  10              		.eabi_attribute 34, 1
  11              		.eabi_attribute 18, 4
  12              		.file	"test-daisy-seed.cpp"
  13              		.text
  14              	.Ltext0:
  15              		.cfi_sections	.debug_frame
  16              		.section	.text._ZN5daisy9DaisySeedD2Ev,"axG",%progbits,_ZN5daisy9DaisySeedD5Ev,comdat
  17              		.align	1
  18              		.p2align 2,,3
  19              		.weak	_ZN5daisy9DaisySeedD2Ev
  20              		.arch armv7e-m
  21              		.syntax unified
  22              		.thumb
  23              		.thumb_func
  24              		.fpu fpv5-d16
  26              	_ZN5daisy9DaisySeedD2Ev:
  27              	.LVL0:
  28              	.LFB2555:
  29              		.file 1 "../../libDaisy//src/daisy_seed.h"
   1:../../libDaisy//src/daisy_seed.h **** #pragma once
   2:../../libDaisy//src/daisy_seed.h **** #ifndef DSY_SEED_H
   3:../../libDaisy//src/daisy_seed.h **** #define DSY_SEED_H
   4:../../libDaisy//src/daisy_seed.h **** 
   5:../../libDaisy//src/daisy_seed.h **** #include "daisy.h"
   6:../../libDaisy//src/daisy_seed.h **** 
   7:../../libDaisy//src/daisy_seed.h **** //Uncomment this out if you're still using the rev2 hardware
   8:../../libDaisy//src/daisy_seed.h **** //#define SEED_REV2
   9:../../libDaisy//src/daisy_seed.h **** 
  10:../../libDaisy//src/daisy_seed.h **** namespace daisy
  11:../../libDaisy//src/daisy_seed.h **** {
  12:../../libDaisy//src/daisy_seed.h **** /**
  13:../../libDaisy//src/daisy_seed.h ****    @brief This is the higher-level interface for the Daisy board. \n 
  14:../../libDaisy//src/daisy_seed.h ****     All basic peripheral configuration/initialization is setup here. \n
  15:../../libDaisy//src/daisy_seed.h **** 
  16:../../libDaisy//src/daisy_seed.h ****    @ingroup boards
  17:../../libDaisy//src/daisy_seed.h **** */
  18:../../libDaisy//src/daisy_seed.h **** class DaisySeed
  19:../../libDaisy//src/daisy_seed.h **** {
  20:../../libDaisy//src/daisy_seed.h ****   public:
  21:../../libDaisy//src/daisy_seed.h ****     DaisySeed() {}
  22:../../libDaisy//src/daisy_seed.h ****     ~DaisySeed() {}
  30              		.loc 1 22 5 view -0
  31              		.cfi_startproc
  32              		@ args = 0, pretend = 0, frame = 0
  33              		@ frame_needed = 0, uses_anonymous_args = 0
  34              		@ link register save eliminated.
  35              	.LBB221:
  36              	.LBI221:
ARM GAS  C:\Users\louis\AppData\Local\Temp\ccZ2fpVL.s 			page 2


  37              		.file 2 "../../libDaisy//src/sys/system.h"
   1:../../libDaisy//src/sys/system.h **** #ifndef DSY_SYSTEM_H
   2:../../libDaisy//src/sys/system.h **** #define DSY_SYSTEM_H
   3:../../libDaisy//src/sys/system.h **** 
   4:../../libDaisy//src/sys/system.h **** #ifndef UNIT_TEST // for unit tests, a dummy implementation is provided below
   5:../../libDaisy//src/sys/system.h **** 
   6:../../libDaisy//src/sys/system.h **** #include <cstdint>
   7:../../libDaisy//src/sys/system.h **** #include "per/tim.h"
   8:../../libDaisy//src/sys/system.h **** 
   9:../../libDaisy//src/sys/system.h **** namespace daisy
  10:../../libDaisy//src/sys/system.h **** {
  11:../../libDaisy//src/sys/system.h **** /** A handle for interacting with the Core System.
  12:../../libDaisy//src/sys/system.h ****  ** This includes the Clock tree, MPU, global DMA initialization,
  13:../../libDaisy//src/sys/system.h ****  ** cache handling, and any other necessary global initiailzation
  14:../../libDaisy//src/sys/system.h ****  **
  15:../../libDaisy//src/sys/system.h ****  ** @author shensley
  16:../../libDaisy//src/sys/system.h ****  ** @ingroup system
  17:../../libDaisy//src/sys/system.h ****  */
  18:../../libDaisy//src/sys/system.h **** class System
  19:../../libDaisy//src/sys/system.h **** {
  20:../../libDaisy//src/sys/system.h ****   public:
  21:../../libDaisy//src/sys/system.h ****     /** Contains settings for initializing the System */
  22:../../libDaisy//src/sys/system.h ****     struct Config
  23:../../libDaisy//src/sys/system.h ****     {
  24:../../libDaisy//src/sys/system.h ****         /** Specifies the system clock frequency that feeds APB/AHB clocks, etc. */
  25:../../libDaisy//src/sys/system.h ****         enum class SysClkFreq
  26:../../libDaisy//src/sys/system.h ****         {
  27:../../libDaisy//src/sys/system.h ****             FREQ_400MHZ,
  28:../../libDaisy//src/sys/system.h ****             FREQ_480MHZ,
  29:../../libDaisy//src/sys/system.h ****         };
  30:../../libDaisy//src/sys/system.h **** 
  31:../../libDaisy//src/sys/system.h ****         /** Method to call on the struct to set to defaults
  32:../../libDaisy//src/sys/system.h ****          ** CPU Freq set to 400MHz
  33:../../libDaisy//src/sys/system.h ****          ** Cache Enabled
  34:../../libDaisy//src/sys/system.h ****          ** */
  35:../../libDaisy//src/sys/system.h ****         void Defaults()
  36:../../libDaisy//src/sys/system.h ****         {
  37:../../libDaisy//src/sys/system.h ****             cpu_freq    = SysClkFreq::FREQ_400MHZ;
  38:../../libDaisy//src/sys/system.h ****             use_dcache  = true;
  39:../../libDaisy//src/sys/system.h ****             use_icache  = true;
  40:../../libDaisy//src/sys/system.h ****             skip_clocks = false;
  41:../../libDaisy//src/sys/system.h ****         }
  42:../../libDaisy//src/sys/system.h **** 
  43:../../libDaisy//src/sys/system.h ****         /** Method to call on the struct to set to boost mode:
  44:../../libDaisy//src/sys/system.h ****          ** CPU Freq set to 480MHz
  45:../../libDaisy//src/sys/system.h ****          ** Cache Enabled
  46:../../libDaisy//src/sys/system.h ****          ** */
  47:../../libDaisy//src/sys/system.h ****         void Boost()
  48:../../libDaisy//src/sys/system.h ****         {
  49:../../libDaisy//src/sys/system.h ****             cpu_freq    = SysClkFreq::FREQ_480MHZ;
  50:../../libDaisy//src/sys/system.h ****             use_dcache  = true;
  51:../../libDaisy//src/sys/system.h ****             use_icache  = true;
  52:../../libDaisy//src/sys/system.h ****             skip_clocks = false;
  53:../../libDaisy//src/sys/system.h ****         }
  54:../../libDaisy//src/sys/system.h **** 
  55:../../libDaisy//src/sys/system.h ****         SysClkFreq cpu_freq;
  56:../../libDaisy//src/sys/system.h ****         bool       use_dcache;
ARM GAS  C:\Users\louis\AppData\Local\Temp\ccZ2fpVL.s 			page 3


  57:../../libDaisy//src/sys/system.h ****         bool       use_icache;
  58:../../libDaisy//src/sys/system.h ****         bool       skip_clocks;
  59:../../libDaisy//src/sys/system.h ****     };
  60:../../libDaisy//src/sys/system.h **** 
  61:../../libDaisy//src/sys/system.h ****     /** Describes the different regions of memory available to the Daisy */
  62:../../libDaisy//src/sys/system.h ****     enum MemoryRegion
  63:../../libDaisy//src/sys/system.h ****     {
  64:../../libDaisy//src/sys/system.h ****         INTERNAL_FLASH = 0,
  65:../../libDaisy//src/sys/system.h ****         ITCMRAM,
  66:../../libDaisy//src/sys/system.h ****         DTCMRAM,
  67:../../libDaisy//src/sys/system.h ****         SRAM_D1,
  68:../../libDaisy//src/sys/system.h ****         SRAM_D2,
  69:../../libDaisy//src/sys/system.h ****         SRAM_D3,
  70:../../libDaisy//src/sys/system.h ****         SDRAM,
  71:../../libDaisy//src/sys/system.h ****         QSPI,
  72:../../libDaisy//src/sys/system.h ****         INVALID_ADDRESS,
  73:../../libDaisy//src/sys/system.h ****     };
  74:../../libDaisy//src/sys/system.h **** 
  75:../../libDaisy//src/sys/system.h ****     /** Bootloader struct for controlling bootloading parameters */
  76:../../libDaisy//src/sys/system.h ****     struct BootInfo
  77:../../libDaisy//src/sys/system.h ****     {
  78:../../libDaisy//src/sys/system.h ****         enum class Type : uint32_t
  79:../../libDaisy//src/sys/system.h ****         {
  80:../../libDaisy//src/sys/system.h ****             INVALID      = 0x00000000,
  81:../../libDaisy//src/sys/system.h ****             JUMP         = 0xDEADBEEF,
  82:../../libDaisy//src/sys/system.h ****             SKIP_TIMEOUT = 0x5AFEB007,
  83:../../libDaisy//src/sys/system.h ****             INF_TIMEOUT  = 0xB0074EFA,
  84:../../libDaisy//src/sys/system.h ****         } status;
  85:../../libDaisy//src/sys/system.h ****         uint32_t data;
  86:../../libDaisy//src/sys/system.h ****         enum class Version : uint32_t
  87:../../libDaisy//src/sys/system.h ****         {
  88:../../libDaisy//src/sys/system.h ****             LT_v6_0 = 0, // Less than v6.0
  89:../../libDaisy//src/sys/system.h ****             NONE,        // No bootloader present
  90:../../libDaisy//src/sys/system.h ****             v6_0,        // v6.0
  91:../../libDaisy//src/sys/system.h ****             v6_1,        // v6.1 or greater
  92:../../libDaisy//src/sys/system.h ****             LAST
  93:../../libDaisy//src/sys/system.h ****         } version;
  94:../../libDaisy//src/sys/system.h ****     };
  95:../../libDaisy//src/sys/system.h **** 
  96:../../libDaisy//src/sys/system.h ****     System() {}
  97:../../libDaisy//src/sys/system.h ****     ~System() {}
  38              		.loc 2 97 5 view .LVU1
  39              		.loc 2 97 5 is_stmt 0 view .LVU2
  40              	.LBE221:
  41              	.LBB222:
  42              	.LBI222:
  43              		.file 3 "../../libDaisy//src/hid/usb.h"
   1:../../libDaisy//src/hid/usb.h **** #pragma once
   2:../../libDaisy//src/hid/usb.h **** #ifndef DSY_HID_USB_H
   3:../../libDaisy//src/hid/usb.h **** #define DSY_HID_USB_H
   4:../../libDaisy//src/hid/usb.h **** #include <stdint.h>
   5:../../libDaisy//src/hid/usb.h **** #include <stdlib.h>
   6:../../libDaisy//src/hid/usb.h **** 
   7:../../libDaisy//src/hid/usb.h **** namespace daisy
   8:../../libDaisy//src/hid/usb.h **** /** @addtogroup human_interface
   9:../../libDaisy//src/hid/usb.h ****     @{
  10:../../libDaisy//src/hid/usb.h **** */
ARM GAS  C:\Users\louis\AppData\Local\Temp\ccZ2fpVL.s 			page 4


  11:../../libDaisy//src/hid/usb.h **** 
  12:../../libDaisy//src/hid/usb.h **** {
  13:../../libDaisy//src/hid/usb.h **** /** 
  14:../../libDaisy//src/hid/usb.h ****     @brief Interface for initializing and using the USB Peripherals on the daisy
  15:../../libDaisy//src/hid/usb.h ****     @author Stephen Hensley
  16:../../libDaisy//src/hid/usb.h ****     @date December 2019
  17:../../libDaisy//src/hid/usb.h **** */
  18:../../libDaisy//src/hid/usb.h **** class UsbHandle
  19:../../libDaisy//src/hid/usb.h **** {
  20:../../libDaisy//src/hid/usb.h ****   public:
  21:../../libDaisy//src/hid/usb.h ****     /** Return values for USBHandle Functions */
  22:../../libDaisy//src/hid/usb.h ****     enum class Result
  23:../../libDaisy//src/hid/usb.h ****     {
  24:../../libDaisy//src/hid/usb.h ****         OK,
  25:../../libDaisy//src/hid/usb.h ****         ERR,
  26:../../libDaisy//src/hid/usb.h ****     };
  27:../../libDaisy//src/hid/usb.h **** 
  28:../../libDaisy//src/hid/usb.h ****     /** Specified which of the two USB Peripherals to initialize. */
  29:../../libDaisy//src/hid/usb.h ****     enum UsbPeriph
  30:../../libDaisy//src/hid/usb.h ****     {
  31:../../libDaisy//src/hid/usb.h ****         FS_INTERNAL, /**< Internal pin */
  32:../../libDaisy//src/hid/usb.h ****         FS_EXTERNAL, /**< FS External D+ pin is Pin 38 (GPIO32). FS External D- pin is Pin 37 (GPIO
  33:../../libDaisy//src/hid/usb.h ****         FS_BOTH,     /**< Both */
  34:../../libDaisy//src/hid/usb.h ****     };
  35:../../libDaisy//src/hid/usb.h **** 
  36:../../libDaisy//src/hid/usb.h **** 
  37:../../libDaisy//src/hid/usb.h ****     /** Function called upon reception of a buffer */
  38:../../libDaisy//src/hid/usb.h ****     typedef void (*ReceiveCallback)(uint8_t* buff, uint32_t* len);
  39:../../libDaisy//src/hid/usb.h **** 
  40:../../libDaisy//src/hid/usb.h ****     UsbHandle() {}
  41:../../libDaisy//src/hid/usb.h **** 
  42:../../libDaisy//src/hid/usb.h ****     ~UsbHandle() {}
  44              		.loc 3 42 5 is_stmt 1 view .LVU3
  45              		.loc 3 42 5 is_stmt 0 view .LVU4
  46              	.LBE222:
  47              	.LBB223:
  48              	.LBI223:
  49              		.file 4 "../../libDaisy//src/per/adc.h"
   1:../../libDaisy//src/per/adc.h **** #pragma once
   2:../../libDaisy//src/per/adc.h **** #ifndef DSY_ADC_H
   3:../../libDaisy//src/per/adc.h **** #define DSY_ADC_H /**< Macro */
   4:../../libDaisy//src/per/adc.h **** #include <stdint.h>
   5:../../libDaisy//src/per/adc.h **** #include <stdlib.h>
   6:../../libDaisy//src/per/adc.h **** #include "daisy_core.h"
   7:../../libDaisy//src/per/adc.h **** #include "per/gpio.h"
   8:../../libDaisy//src/per/adc.h **** 
   9:../../libDaisy//src/per/adc.h **** #define DSY_ADC_MAX_CHANNELS 16 /**< Maximum number of ADC channels */
  10:../../libDaisy//src/per/adc.h **** 
  11:../../libDaisy//src/per/adc.h **** namespace daisy
  12:../../libDaisy//src/per/adc.h **** {
  13:../../libDaisy//src/per/adc.h **** /** @addtogroup per_analog
  14:../../libDaisy//src/per/adc.h ****     @{
  15:../../libDaisy//src/per/adc.h **** */
  16:../../libDaisy//src/per/adc.h **** 
  17:../../libDaisy//src/per/adc.h **** /* While there may not be many configuration options here,
  18:../../libDaisy//src/per/adc.h **** using a struct like this allows us to add more configuration
  19:../../libDaisy//src/per/adc.h **** later without breaking existing functionality.
ARM GAS  C:\Users\louis\AppData\Local\Temp\ccZ2fpVL.s 			page 5


  20:../../libDaisy//src/per/adc.h **** */
  21:../../libDaisy//src/per/adc.h **** 
  22:../../libDaisy//src/per/adc.h **** /** @brief   Configuration Structure for an ADC Channel 
  23:../../libDaisy//src/per/adc.h ****  *  @details This can be used to configure a a single input, 
  24:../../libDaisy//src/per/adc.h ****  *           or a multiplexed input, allowing up to 8 inputs on 
  25:../../libDaisy//src/per/adc.h ****  *           one channel.
  26:../../libDaisy//src/per/adc.h ****  *  @note    Sharing data lines to multiple muxes _is_ possible, but
  27:../../libDaisy//src/per/adc.h ****  *           each channel sharing data lines must be set to the maximum
  28:../../libDaisy//src/per/adc.h ****  *           number of channels, even if some multiplexers have fewer
  29:../../libDaisy//src/per/adc.h ****  *           inputs connected.
  30:../../libDaisy//src/per/adc.h **** */
  31:../../libDaisy//src/per/adc.h **** struct AdcChannelConfig
  32:../../libDaisy//src/per/adc.h **** {
  33:../../libDaisy//src/per/adc.h ****     /** Which pin to use for multiplexing */
  34:../../libDaisy//src/per/adc.h ****     enum MuxPin
  35:../../libDaisy//src/per/adc.h ****     {
  36:../../libDaisy//src/per/adc.h ****         MUX_SEL_0,    /**< & */
  37:../../libDaisy//src/per/adc.h ****         MUX_SEL_1,    /**< & */
  38:../../libDaisy//src/per/adc.h ****         MUX_SEL_2,    /**< & */
  39:../../libDaisy//src/per/adc.h ****         MUX_SEL_LAST, /**< & */
  40:../../libDaisy//src/per/adc.h ****     };
  41:../../libDaisy//src/per/adc.h **** 
  42:../../libDaisy//src/per/adc.h ****     /** \brief per channel conversion speed added to fixed time based on bitdepth, etc. */
  43:../../libDaisy//src/per/adc.h ****     enum ConversionSpeed
  44:../../libDaisy//src/per/adc.h ****     {
  45:../../libDaisy//src/per/adc.h ****         SPEED_1CYCLES_5,
  46:../../libDaisy//src/per/adc.h ****         SPEED_2CYCLES_5,
  47:../../libDaisy//src/per/adc.h ****         SPEED_8CYCLES_5,
  48:../../libDaisy//src/per/adc.h ****         SPEED_16CYCLES_5,
  49:../../libDaisy//src/per/adc.h ****         SPEED_32CYCLES_5,
  50:../../libDaisy//src/per/adc.h ****         SPEED_64CYCLES_5,
  51:../../libDaisy//src/per/adc.h ****         SPEED_387CYCLES_5,
  52:../../libDaisy//src/per/adc.h ****         SPEED_810CYCLES_5,
  53:../../libDaisy//src/per/adc.h ****     };
  54:../../libDaisy//src/per/adc.h **** 
  55:../../libDaisy//src/per/adc.h ****     /** Initializes a single ADC pin as an ADC. 
  56:../../libDaisy//src/per/adc.h ****     \param pin Pin to init.
  57:../../libDaisy//src/per/adc.h ****     \param speed conversion speed for this pin defaults to 8.5 cycles
  58:../../libDaisy//src/per/adc.h ****      */
  59:../../libDaisy//src/per/adc.h ****     void InitSingle(dsy_gpio_pin pin, ConversionSpeed speed = SPEED_8CYCLES_5);
  60:../../libDaisy//src/per/adc.h **** 
  61:../../libDaisy//src/per/adc.h ****     /** 
  62:../../libDaisy//src/per/adc.h ****     Initializes a single ADC pin as a Multiplexed ADC.
  63:../../libDaisy//src/per/adc.h ****     Requires a CD405X Multiplexer connected to the pin.
  64:../../libDaisy//src/per/adc.h ****     You only need to supply the mux pins that are required,
  65:../../libDaisy//src/per/adc.h ****     e.g. a 4052 mux would only require mux_0 and mux_1.
  66:../../libDaisy//src/per/adc.h ****     Internal Callbacks handle the pin addressing.
  67:../../libDaisy//src/per/adc.h ****     \param adc_pin &
  68:../../libDaisy//src/per/adc.h ****     \param mux_channels must be 1-8
  69:../../libDaisy//src/per/adc.h ****     \param mux_0 First mux pin
  70:../../libDaisy//src/per/adc.h ****     \param mux_1 Second mux pin
  71:../../libDaisy//src/per/adc.h ****     \param mux_2 Third mux pin
  72:../../libDaisy//src/per/adc.h ****     \param speed conversion speed for this pin defaults to 8.5 cycles
  73:../../libDaisy//src/per/adc.h ****     */
  74:../../libDaisy//src/per/adc.h ****     void InitMux(dsy_gpio_pin    adc_pin,
  75:../../libDaisy//src/per/adc.h ****                  size_t          mux_channels,
  76:../../libDaisy//src/per/adc.h ****                  dsy_gpio_pin    mux_0,
ARM GAS  C:\Users\louis\AppData\Local\Temp\ccZ2fpVL.s 			page 6


  77:../../libDaisy//src/per/adc.h ****                  dsy_gpio_pin    mux_1 = {DSY_GPIOX, 0},
  78:../../libDaisy//src/per/adc.h ****                  dsy_gpio_pin    mux_2 = {DSY_GPIOX, 0},
  79:../../libDaisy//src/per/adc.h ****                  ConversionSpeed speed = SPEED_8CYCLES_5);
  80:../../libDaisy//src/per/adc.h **** 
  81:../../libDaisy//src/per/adc.h ****     dsy_gpio        pin_;                   /**< & */
  82:../../libDaisy//src/per/adc.h ****     dsy_gpio        mux_pin_[MUX_SEL_LAST]; /**< & */
  83:../../libDaisy//src/per/adc.h ****     uint8_t         mux_channels_;          /**< & */
  84:../../libDaisy//src/per/adc.h ****     ConversionSpeed speed_;
  85:../../libDaisy//src/per/adc.h **** };
  86:../../libDaisy//src/per/adc.h **** 
  87:../../libDaisy//src/per/adc.h **** /**
  88:../../libDaisy//src/per/adc.h ****    @brief Handler for analog to digital conversion
  89:../../libDaisy//src/per/adc.h **** */
  90:../../libDaisy//src/per/adc.h **** class AdcHandle
  91:../../libDaisy//src/per/adc.h **** {
  92:../../libDaisy//src/per/adc.h ****   public:
  93:../../libDaisy//src/per/adc.h ****     /** Supported oversampling amounts */
  94:../../libDaisy//src/per/adc.h ****     enum OverSampling
  95:../../libDaisy//src/per/adc.h ****     {
  96:../../libDaisy//src/per/adc.h ****         OVS_NONE, /**< & */
  97:../../libDaisy//src/per/adc.h ****         OVS_4,    /**< & */
  98:../../libDaisy//src/per/adc.h ****         OVS_8,    /**< & */
  99:../../libDaisy//src/per/adc.h ****         OVS_16,   /**< & */
 100:../../libDaisy//src/per/adc.h ****         OVS_32,   /**< & */
 101:../../libDaisy//src/per/adc.h ****         OVS_64,   /**< & */
 102:../../libDaisy//src/per/adc.h ****         OVS_128,  /**< & */
 103:../../libDaisy//src/per/adc.h ****         OVS_256,  /**< & */
 104:../../libDaisy//src/per/adc.h ****         OVS_512,  /**< & */
 105:../../libDaisy//src/per/adc.h ****         OVS_1024, /**< & */
 106:../../libDaisy//src/per/adc.h ****         OVS_LAST, /**< & */
 107:../../libDaisy//src/per/adc.h ****     };
 108:../../libDaisy//src/per/adc.h **** 
 109:../../libDaisy//src/per/adc.h ****     AdcHandle() {}
 110:../../libDaisy//src/per/adc.h ****     ~AdcHandle() {}
  50              		.loc 4 110 5 is_stmt 1 view .LVU5
  51              		.loc 4 110 5 is_stmt 0 view .LVU6
  52              	.LBE223:
  53              	.LBB224:
  54              	.LBI224:
  55              		.file 5 "../../libDaisy//src/hid/audio.h"
   1:../../libDaisy//src/hid/audio.h **** #ifndef DSY_AUDIO_H
   2:../../libDaisy//src/hid/audio.h **** #define DSY_AUDIO_H /**< & */
   3:../../libDaisy//src/hid/audio.h **** 
   4:../../libDaisy//src/hid/audio.h **** #include "per/sai.h"
   5:../../libDaisy//src/hid/audio.h **** 
   6:../../libDaisy//src/hid/audio.h **** namespace daisy
   7:../../libDaisy//src/hid/audio.h **** {
   8:../../libDaisy//src/hid/audio.h **** /** @brief Audio Engine Handle
   9:../../libDaisy//src/hid/audio.h ****  *  @ingroup audio 
  10:../../libDaisy//src/hid/audio.h ****  *  @details This class allows for higher level access to an audio engine.
  11:../../libDaisy//src/hid/audio.h ****  *           If you're using a SOM like the DaisySeed or DaisyPatchSM (or any 
  12:../../libDaisy//src/hid/audio.h ****  *            board that includes one of those objects) then the intialization
  13:../../libDaisy//src/hid/audio.h ****  *            is already taken  care of.
  14:../../libDaisy//src/hid/audio.h ****  *           If you're setting up your own custom hardware, or need to make changes
  15:../../libDaisy//src/hid/audio.h ****  *           you will have to take the following steps:
  16:../../libDaisy//src/hid/audio.h ****  *             1. Create and Initialize an SaiHandle or two depending on your requirements
  17:../../libDaisy//src/hid/audio.h ****  *             2. Initialize the Audio Handle with the desired settings and the Initialized SaiHand
ARM GAS  C:\Users\louis\AppData\Local\Temp\ccZ2fpVL.s 			page 7


  18:../../libDaisy//src/hid/audio.h ****  *             3. If the connected codec requires special configuration or initialization, do so
  19:../../libDaisy//src/hid/audio.h ****  *             4. Write a callback method using either the AudioCallback or the InterleavingAudioCa
  20:../../libDaisy//src/hid/audio.h ****  *             5. Start the Audio using one of the StartAudio function
  21:../../libDaisy//src/hid/audio.h ****  */
  22:../../libDaisy//src/hid/audio.h **** class AudioHandle
  23:../../libDaisy//src/hid/audio.h **** {
  24:../../libDaisy//src/hid/audio.h ****   public:
  25:../../libDaisy//src/hid/audio.h ****     /** Manually configurable details about the Audio Engine */
  26:../../libDaisy//src/hid/audio.h ****     /** TODO: Figure out how to get samplerate in here. */
  27:../../libDaisy//src/hid/audio.h ****     struct Config
  28:../../libDaisy//src/hid/audio.h ****     {
  29:../../libDaisy//src/hid/audio.h ****         /** number of samples to process per callback */
  30:../../libDaisy//src/hid/audio.h ****         size_t blocksize;
  31:../../libDaisy//src/hid/audio.h **** 
  32:../../libDaisy//src/hid/audio.h ****         /**< Sample rate of audio */
  33:../../libDaisy//src/hid/audio.h ****         SaiHandle::Config::SampleRate samplerate;
  34:../../libDaisy//src/hid/audio.h **** 
  35:../../libDaisy//src/hid/audio.h ****         /** factor for adjustment before and after callback for hardware that may have extra headro
  36:../../libDaisy//src/hid/audio.h ****         float postgain;
  37:../../libDaisy//src/hid/audio.h **** 
  38:../../libDaisy//src/hid/audio.h ****         /** factor for additional one-sided compensation to audio path for hardware that may
  39:../../libDaisy//src/hid/audio.h ****          *  have unequal input/output ranges
  40:../../libDaisy//src/hid/audio.h ****          */
  41:../../libDaisy//src/hid/audio.h ****         float output_compensation;
  42:../../libDaisy//src/hid/audio.h **** 
  43:../../libDaisy//src/hid/audio.h ****         /** Sets default values for config struct */
  44:../../libDaisy//src/hid/audio.h ****         Config()
  45:../../libDaisy//src/hid/audio.h ****         : blocksize(48),
  46:../../libDaisy//src/hid/audio.h ****           samplerate(SaiHandle::Config::SampleRate::SAI_48KHZ),
  47:../../libDaisy//src/hid/audio.h ****           postgain(1.f),
  48:../../libDaisy//src/hid/audio.h ****           output_compensation(1.f)
  49:../../libDaisy//src/hid/audio.h ****         {
  50:../../libDaisy//src/hid/audio.h ****         }
  51:../../libDaisy//src/hid/audio.h ****     };
  52:../../libDaisy//src/hid/audio.h **** 
  53:../../libDaisy//src/hid/audio.h ****     enum class Result
  54:../../libDaisy//src/hid/audio.h ****     {
  55:../../libDaisy//src/hid/audio.h ****         OK,
  56:../../libDaisy//src/hid/audio.h ****         ERR,
  57:../../libDaisy//src/hid/audio.h ****     };
  58:../../libDaisy//src/hid/audio.h **** 
  59:../../libDaisy//src/hid/audio.h ****     /** Non-Interleaving input buffer
  60:../../libDaisy//src/hid/audio.h ****      * Buffer arranged by float[chn][sample] 
  61:../../libDaisy//src/hid/audio.h ****      * const so that the user can't modify the input
  62:../../libDaisy//src/hid/audio.h ****      */
  63:../../libDaisy//src/hid/audio.h ****     typedef const float* const* InputBuffer;
  64:../../libDaisy//src/hid/audio.h **** 
  65:../../libDaisy//src/hid/audio.h ****     /** Non-Interleaving output buffer
  66:../../libDaisy//src/hid/audio.h ****      * Arranged by float[chn][sample] 
  67:../../libDaisy//src/hid/audio.h ****      */
  68:../../libDaisy//src/hid/audio.h ****     typedef float** OutputBuffer;
  69:../../libDaisy//src/hid/audio.h **** 
  70:../../libDaisy//src/hid/audio.h ****     /** Type for a Non-Interleaving audio callback 
  71:../../libDaisy//src/hid/audio.h ****      * Non-Interleaving audio callbacks in daisy will be of this type
  72:../../libDaisy//src/hid/audio.h ****      */
  73:../../libDaisy//src/hid/audio.h ****     typedef void (*AudioCallback)(InputBuffer  in,
  74:../../libDaisy//src/hid/audio.h ****                                   OutputBuffer out,
ARM GAS  C:\Users\louis\AppData\Local\Temp\ccZ2fpVL.s 			page 8


  75:../../libDaisy//src/hid/audio.h ****                                   size_t       size);
  76:../../libDaisy//src/hid/audio.h **** 
  77:../../libDaisy//src/hid/audio.h ****     /** Interleaving Input buffer
  78:../../libDaisy//src/hid/audio.h ****      ** audio is prepared as { L0, R0, L1, R1, . . . LN, RN }]
  79:../../libDaisy//src/hid/audio.h ****      ** this is const, as the user shouldn't modify it
  80:../../libDaisy//src/hid/audio.h ****     */
  81:../../libDaisy//src/hid/audio.h ****     typedef const float* InterleavingInputBuffer;
  82:../../libDaisy//src/hid/audio.h **** 
  83:../../libDaisy//src/hid/audio.h ****     /** Interleaving Output buffer 
  84:../../libDaisy//src/hid/audio.h ****      ** audio is prepared as { L0, R0, L1, R1, . . . LN, RN }
  85:../../libDaisy//src/hid/audio.h ****     */
  86:../../libDaisy//src/hid/audio.h ****     typedef float* InterleavingOutputBuffer;
  87:../../libDaisy//src/hid/audio.h **** 
  88:../../libDaisy//src/hid/audio.h ****     /** Interleaving Audio Callback 
  89:../../libDaisy//src/hid/audio.h ****      * Interleaving audio callbacks in daisy must be of this type
  90:../../libDaisy//src/hid/audio.h ****      */
  91:../../libDaisy//src/hid/audio.h ****     typedef void (*InterleavingAudioCallback)(InterleavingInputBuffer  in,
  92:../../libDaisy//src/hid/audio.h ****                                               InterleavingOutputBuffer out,
  93:../../libDaisy//src/hid/audio.h ****                                               size_t                   size);
  94:../../libDaisy//src/hid/audio.h **** 
  95:../../libDaisy//src/hid/audio.h ****     AudioHandle() : pimpl_(nullptr) {}
  96:../../libDaisy//src/hid/audio.h ****     ~AudioHandle() {}
  56              		.loc 5 96 5 is_stmt 1 view .LVU7
  57              		.loc 5 96 5 is_stmt 0 view .LVU8
  58              	.LBE224:
  59              		.loc 1 22 19 view .LVU9
  60 0000 7047     		bx	lr
  61              		.cfi_endproc
  62              	.LFE2555:
  64              		.weak	_ZN5daisy9DaisySeedD1Ev
  65              		.thumb_set _ZN5daisy9DaisySeedD1Ev,_ZN5daisy9DaisySeedD2Ev
  66 0002 00BF     		.section	.text._ZN7daisysp5AdEnvD2Ev,"axG",%progbits,_ZN7daisysp5AdEnvD5Ev,comdat
  67              		.align	1
  68              		.p2align 2,,3
  69              		.weak	_ZN7daisysp5AdEnvD2Ev
  70              		.syntax unified
  71              		.thumb
  72              		.thumb_func
  73              		.fpu fpv5-d16
  75              	_ZN7daisysp5AdEnvD2Ev:
  76              	.LVL1:
  77              	.LFB2564:
  78              		.file 6 "../../DaisySP//Source/Control/adenv.h"
   1:../../DaisySP//Source/Control/adenv.h **** /*
   2:../../DaisySP//Source/Control/adenv.h **** Copyright (c) 2020 Electrosmith, Corp
   3:../../DaisySP//Source/Control/adenv.h **** 
   4:../../DaisySP//Source/Control/adenv.h **** Use of this source code is governed by an MIT-style
   5:../../DaisySP//Source/Control/adenv.h **** license that can be found in the LICENSE file or at
   6:../../DaisySP//Source/Control/adenv.h **** https://opensource.org/licenses/MIT.
   7:../../DaisySP//Source/Control/adenv.h **** */
   8:../../DaisySP//Source/Control/adenv.h **** 
   9:../../DaisySP//Source/Control/adenv.h **** #pragma once
  10:../../DaisySP//Source/Control/adenv.h **** #ifndef ADENV_H
  11:../../DaisySP//Source/Control/adenv.h **** #define ADENV_H
  12:../../DaisySP//Source/Control/adenv.h **** #include <stdint.h>
  13:../../DaisySP//Source/Control/adenv.h **** #ifdef __cplusplus
  14:../../DaisySP//Source/Control/adenv.h **** 
ARM GAS  C:\Users\louis\AppData\Local\Temp\ccZ2fpVL.s 			page 9


  15:../../DaisySP//Source/Control/adenv.h **** namespace daisysp
  16:../../DaisySP//Source/Control/adenv.h **** {
  17:../../DaisySP//Source/Control/adenv.h **** /** Distinct stages that the phase of the envelope can be located in.
  18:../../DaisySP//Source/Control/adenv.h ****     @see AdEnv
  19:../../DaisySP//Source/Control/adenv.h **** */
  20:../../DaisySP//Source/Control/adenv.h **** enum AdEnvSegment
  21:../../DaisySP//Source/Control/adenv.h **** {
  22:../../DaisySP//Source/Control/adenv.h ****     /** located at phase location 0, and not currently running */
  23:../../DaisySP//Source/Control/adenv.h ****     ADENV_SEG_IDLE,
  24:../../DaisySP//Source/Control/adenv.h ****     /** First segment of envelope where phase moves from MIN value to MAX value */
  25:../../DaisySP//Source/Control/adenv.h ****     ADENV_SEG_ATTACK,
  26:../../DaisySP//Source/Control/adenv.h ****     /** Second segment of envelope where phase moves from MAX to MIN value */
  27:../../DaisySP//Source/Control/adenv.h ****     ADENV_SEG_DECAY,
  28:../../DaisySP//Source/Control/adenv.h ****     /** The final segment of the envelope (currently decay) */
  29:../../DaisySP//Source/Control/adenv.h ****     ADENV_SEG_LAST,
  30:../../DaisySP//Source/Control/adenv.h **** };
  31:../../DaisySP//Source/Control/adenv.h **** 
  32:../../DaisySP//Source/Control/adenv.h **** /** Trigger-able envelope with adjustable min/max, and independent per-segment time control.
  33:../../DaisySP//Source/Control/adenv.h **** 
  34:../../DaisySP//Source/Control/adenv.h ****     \author shensley
  35:../../DaisySP//Source/Control/adenv.h ****     \todo - Add Cycling
  36:../../DaisySP//Source/Control/adenv.h ****     \todo - Implement Curve (its only linear for now).
  37:../../DaisySP//Source/Control/adenv.h ****     \todo - Maybe make this an ADsr_ that has AD/AR/Asr_ modes.
  38:../../DaisySP//Source/Control/adenv.h ****  */
  39:../../DaisySP//Source/Control/adenv.h **** class AdEnv
  40:../../DaisySP//Source/Control/adenv.h **** {
  41:../../DaisySP//Source/Control/adenv.h ****   public:
  42:../../DaisySP//Source/Control/adenv.h ****     AdEnv() {}
  43:../../DaisySP//Source/Control/adenv.h ****     ~AdEnv() {}
  79              		.loc 6 43 5 is_stmt 1 view -0
  80              		.cfi_startproc
  81              		@ args = 0, pretend = 0, frame = 0
  82              		@ frame_needed = 0, uses_anonymous_args = 0
  83              		@ link register save eliminated.
  84              		.loc 6 43 15 is_stmt 0 view .LVU11
  85 0000 7047     		bx	lr
  86              		.cfi_endproc
  87              	.LFE2564:
  89              		.weak	_ZN7daisysp5AdEnvD1Ev
  90              		.thumb_set _ZN7daisysp5AdEnvD1Ev,_ZN7daisysp5AdEnvD2Ev
  91              		.section	.text._ZN7daisysp10OscillatorD2Ev,"axG",%progbits,_ZN7daisysp10OscillatorD5Ev,comdat
  92              		.align	1
  93              		.p2align 2,,3
  94              		.weak	_ZN7daisysp10OscillatorD2Ev
  95              		.syntax unified
  96              		.thumb
  97              		.thumb_func
  98              		.fpu fpv5-d16
 100              	_ZN7daisysp10OscillatorD2Ev:
 101              	.LVL2:
 102              	.LFB4240:
 103              		.file 7 "../../DaisySP//Source/Synthesis/oscillator.h"
   1:../../DaisySP//Source/Synthesis/oscillator.h **** /*
   2:../../DaisySP//Source/Synthesis/oscillator.h **** Copyright (c) 2020 Electrosmith, Corp
   3:../../DaisySP//Source/Synthesis/oscillator.h **** 
   4:../../DaisySP//Source/Synthesis/oscillator.h **** Use of this source code is governed by an MIT-style
   5:../../DaisySP//Source/Synthesis/oscillator.h **** license that can be found in the LICENSE file or at
ARM GAS  C:\Users\louis\AppData\Local\Temp\ccZ2fpVL.s 			page 10


   6:../../DaisySP//Source/Synthesis/oscillator.h **** https://opensource.org/licenses/MIT.
   7:../../DaisySP//Source/Synthesis/oscillator.h **** */
   8:../../DaisySP//Source/Synthesis/oscillator.h **** 
   9:../../DaisySP//Source/Synthesis/oscillator.h **** #pragma once
  10:../../DaisySP//Source/Synthesis/oscillator.h **** #ifndef DSY_OSCILLATOR_H
  11:../../DaisySP//Source/Synthesis/oscillator.h **** #define DSY_OSCILLATOR_H
  12:../../DaisySP//Source/Synthesis/oscillator.h **** #include <stdint.h>
  13:../../DaisySP//Source/Synthesis/oscillator.h **** #include "Utility/dsp.h"
  14:../../DaisySP//Source/Synthesis/oscillator.h **** #ifdef __cplusplus
  15:../../DaisySP//Source/Synthesis/oscillator.h **** 
  16:../../DaisySP//Source/Synthesis/oscillator.h **** namespace daisysp
  17:../../DaisySP//Source/Synthesis/oscillator.h **** {
  18:../../DaisySP//Source/Synthesis/oscillator.h **** /** Synthesis of several waveforms, including polyBLEP bandlimited waveforms.
  19:../../DaisySP//Source/Synthesis/oscillator.h **** */
  20:../../DaisySP//Source/Synthesis/oscillator.h **** class Oscillator
  21:../../DaisySP//Source/Synthesis/oscillator.h **** {
  22:../../DaisySP//Source/Synthesis/oscillator.h ****   public:
  23:../../DaisySP//Source/Synthesis/oscillator.h ****     Oscillator() {}
  24:../../DaisySP//Source/Synthesis/oscillator.h ****     ~Oscillator() {}
 104              		.loc 7 24 5 is_stmt 1 view -0
 105              		.cfi_startproc
 106              		@ args = 0, pretend = 0, frame = 0
 107              		@ frame_needed = 0, uses_anonymous_args = 0
 108              		@ link register save eliminated.
 109              		.loc 7 24 20 is_stmt 0 view .LVU13
 110 0000 7047     		bx	lr
 111              		.cfi_endproc
 112              	.LFE4240:
 114              		.weak	_ZN7daisysp10OscillatorD1Ev
 115              		.thumb_set _ZN7daisysp10OscillatorD1Ev,_ZN7daisysp10OscillatorD2Ev
 116              		.section	.text._ZN7daisysp3SvfD2Ev,"axG",%progbits,_ZN7daisysp3SvfD5Ev,comdat
 117              		.align	1
 118              		.p2align 2,,3
 119              		.weak	_ZN7daisysp3SvfD2Ev
 120              		.syntax unified
 121              		.thumb
 122              		.thumb_func
 123              		.fpu fpv5-d16
 125              	_ZN7daisysp3SvfD2Ev:
 126              	.LVL3:
 127              	.LFB4257:
 128              		.file 8 "../../DaisySP//Source/Filters/svf.h"
   1:../../DaisySP//Source/Filters/svf.h **** /*
   2:../../DaisySP//Source/Filters/svf.h **** Copyright (c) 2020 Electrosmith, Corp
   3:../../DaisySP//Source/Filters/svf.h **** 
   4:../../DaisySP//Source/Filters/svf.h **** Use of this source code is governed by an MIT-style
   5:../../DaisySP//Source/Filters/svf.h **** license that can be found in the LICENSE file or at
   6:../../DaisySP//Source/Filters/svf.h **** https://opensource.org/licenses/MIT.
   7:../../DaisySP//Source/Filters/svf.h **** */
   8:../../DaisySP//Source/Filters/svf.h **** 
   9:../../DaisySP//Source/Filters/svf.h **** #pragma once
  10:../../DaisySP//Source/Filters/svf.h **** #ifndef DSY_SVF_H
  11:../../DaisySP//Source/Filters/svf.h **** #define DSY_SVF_H
  12:../../DaisySP//Source/Filters/svf.h **** 
  13:../../DaisySP//Source/Filters/svf.h **** namespace daisysp
  14:../../DaisySP//Source/Filters/svf.h **** {
  15:../../DaisySP//Source/Filters/svf.h **** /**      Double Sampled, Stable State Variable Filter
ARM GAS  C:\Users\louis\AppData\Local\Temp\ccZ2fpVL.s 			page 11


  16:../../DaisySP//Source/Filters/svf.h **** 
  17:../../DaisySP//Source/Filters/svf.h **** Credit to Andrew Simper from musicdsp.org
  18:../../DaisySP//Source/Filters/svf.h **** 
  19:../../DaisySP//Source/Filters/svf.h **** This is his "State Variable Filter (Double Sampled, Stable)"
  20:../../DaisySP//Source/Filters/svf.h **** 
  21:../../DaisySP//Source/Filters/svf.h **** Additional thanks to Laurent de Soras for stability limit, and 
  22:../../DaisySP//Source/Filters/svf.h **** Stefan Diedrichsen for the correct notch output
  23:../../DaisySP//Source/Filters/svf.h **** 
  24:../../DaisySP//Source/Filters/svf.h **** Ported by: Stephen Hensley
  25:../../DaisySP//Source/Filters/svf.h **** */
  26:../../DaisySP//Source/Filters/svf.h **** class Svf
  27:../../DaisySP//Source/Filters/svf.h **** {
  28:../../DaisySP//Source/Filters/svf.h ****   public:
  29:../../DaisySP//Source/Filters/svf.h ****     Svf() {}
  30:../../DaisySP//Source/Filters/svf.h ****     ~Svf() {}
 129              		.loc 8 30 5 is_stmt 1 view -0
 130              		.cfi_startproc
 131              		@ args = 0, pretend = 0, frame = 0
 132              		@ frame_needed = 0, uses_anonymous_args = 0
 133              		@ link register save eliminated.
 134              		.loc 8 30 13 is_stmt 0 view .LVU15
 135 0000 7047     		bx	lr
 136              		.cfi_endproc
 137              	.LFE4257:
 139              		.weak	_ZN7daisysp3SvfD1Ev
 140              		.thumb_set _ZN7daisysp3SvfD1Ev,_ZN7daisysp3SvfD2Ev
 141              		.section	.text._ZN7daisysp7OnePoleD2Ev,"axG",%progbits,_ZN7daisysp7OnePoleD5Ev,comdat
 142              		.align	1
 143              		.p2align 2,,3
 144              		.weak	_ZN7daisysp7OnePoleD2Ev
 145              		.syntax unified
 146              		.thumb
 147              		.thumb_func
 148              		.fpu fpv5-d16
 150              	_ZN7daisysp7OnePoleD2Ev:
 151              	.LVL4:
 152              	.LFB4452:
 153              		.file 9 "../../DaisySP//Source/Filters/onepole.h"
   1:../../DaisySP//Source/Filters/onepole.h **** /*
   2:../../DaisySP//Source/Filters/onepole.h **** Copyright (c) 2020 Electrosmith, Corp, Emilie Gillet
   3:../../DaisySP//Source/Filters/onepole.h **** 
   4:../../DaisySP//Source/Filters/onepole.h **** Use of this source code is governed by an MIT-style
   5:../../DaisySP//Source/Filters/onepole.h **** license that can be found in the LICENSE file or at
   6:../../DaisySP//Source/Filters/onepole.h **** https://opensource.org/licenses/MIT.
   7:../../DaisySP//Source/Filters/onepole.h **** */
   8:../../DaisySP//Source/Filters/onepole.h **** 
   9:../../DaisySP//Source/Filters/onepole.h **** #ifndef DSY_ONEPOLE_H
  10:../../DaisySP//Source/Filters/onepole.h **** #define DSY_ONEPOLE_H
  11:../../DaisySP//Source/Filters/onepole.h **** 
  12:../../DaisySP//Source/Filters/onepole.h **** #include "Utility/dsp.h"
  13:../../DaisySP//Source/Filters/onepole.h **** #include <cmath>
  14:../../DaisySP//Source/Filters/onepole.h **** #include <algorithm>
  15:../../DaisySP//Source/Filters/onepole.h **** 
  16:../../DaisySP//Source/Filters/onepole.h **** namespace daisysp
  17:../../DaisySP//Source/Filters/onepole.h **** {
  18:../../DaisySP//Source/Filters/onepole.h **** /**         
  19:../../DaisySP//Source/Filters/onepole.h ****     @brief One Pole Lowpass / Highpass Filter
ARM GAS  C:\Users\louis\AppData\Local\Temp\ccZ2fpVL.s 			page 12


  20:../../DaisySP//Source/Filters/onepole.h ****     @author beserge
  21:../../DaisySP//Source/Filters/onepole.h ****     @date Dec 2023 
  22:../../DaisySP//Source/Filters/onepole.h ****     Ported from pichenettes/stmlib/dsp/filter.h \n 
  23:../../DaisySP//Source/Filters/onepole.h ****     \n to an independent module. \n
  24:../../DaisySP//Source/Filters/onepole.h ****     Original code written by Emilie Gillet. \n
  25:../../DaisySP//Source/Filters/onepole.h **** */
  26:../../DaisySP//Source/Filters/onepole.h **** class OnePole
  27:../../DaisySP//Source/Filters/onepole.h **** {
  28:../../DaisySP//Source/Filters/onepole.h ****   public:
  29:../../DaisySP//Source/Filters/onepole.h ****     OnePole() {}
  30:../../DaisySP//Source/Filters/onepole.h ****     ~OnePole() {}
 154              		.loc 9 30 5 is_stmt 1 view -0
 155              		.cfi_startproc
 156              		@ args = 0, pretend = 0, frame = 0
 157              		@ frame_needed = 0, uses_anonymous_args = 0
 158              		@ link register save eliminated.
 159              		.loc 9 30 17 is_stmt 0 view .LVU17
 160 0000 7047     		bx	lr
 161              		.cfi_endproc
 162              	.LFE4452:
 164              		.weak	_ZN7daisysp7OnePoleD1Ev
 165              		.thumb_set _ZN7daisysp7OnePoleD1Ev,_ZN7daisysp7OnePoleD2Ev
 166              		.section	.text._ZN7daisysp10WhiteNoiseD2Ev,"axG",%progbits,_ZN7daisysp10WhiteNoiseD5Ev,comdat
 167              		.align	1
 168              		.p2align 2,,3
 169              		.weak	_ZN7daisysp10WhiteNoiseD2Ev
 170              		.syntax unified
 171              		.thumb
 172              		.thumb_func
 173              		.fpu fpv5-d16
 175              	_ZN7daisysp10WhiteNoiseD2Ev:
 176              	.LVL5:
 177              	.LFB4522:
 178              		.file 10 "../../DaisySP//Source/Noise/whitenoise.h"
   1:../../DaisySP//Source/Noise/whitenoise.h **** /*
   2:../../DaisySP//Source/Noise/whitenoise.h **** Copyright (c) 2020 Electrosmith, Corp
   3:../../DaisySP//Source/Noise/whitenoise.h **** 
   4:../../DaisySP//Source/Noise/whitenoise.h **** Use of this source code is governed by an MIT-style
   5:../../DaisySP//Source/Noise/whitenoise.h **** license that can be found in the LICENSE file or at
   6:../../DaisySP//Source/Noise/whitenoise.h **** https://opensource.org/licenses/MIT.
   7:../../DaisySP//Source/Noise/whitenoise.h **** */
   8:../../DaisySP//Source/Noise/whitenoise.h **** 
   9:../../DaisySP//Source/Noise/whitenoise.h **** #pragma once
  10:../../DaisySP//Source/Noise/whitenoise.h **** #ifndef DSY_WHITENOISE_H
  11:../../DaisySP//Source/Noise/whitenoise.h **** #define DSY_WHITENOISE_H
  12:../../DaisySP//Source/Noise/whitenoise.h **** #include <stdint.h>
  13:../../DaisySP//Source/Noise/whitenoise.h **** #ifdef __cplusplus
  14:../../DaisySP//Source/Noise/whitenoise.h **** namespace daisysp
  15:../../DaisySP//Source/Noise/whitenoise.h **** {
  16:../../DaisySP//Source/Noise/whitenoise.h **** /** fast white noise generator
  17:../../DaisySP//Source/Noise/whitenoise.h **** 
  18:../../DaisySP//Source/Noise/whitenoise.h ****     I think this came from musicdsp.org at some point
  19:../../DaisySP//Source/Noise/whitenoise.h **** */
  20:../../DaisySP//Source/Noise/whitenoise.h **** class WhiteNoise
  21:../../DaisySP//Source/Noise/whitenoise.h **** {
  22:../../DaisySP//Source/Noise/whitenoise.h ****   public:
  23:../../DaisySP//Source/Noise/whitenoise.h ****     WhiteNoise() {}
ARM GAS  C:\Users\louis\AppData\Local\Temp\ccZ2fpVL.s 			page 13


  24:../../DaisySP//Source/Noise/whitenoise.h ****     ~WhiteNoise() {}
 179              		.loc 10 24 5 is_stmt 1 view -0
 180              		.cfi_startproc
 181              		@ args = 0, pretend = 0, frame = 0
 182              		@ frame_needed = 0, uses_anonymous_args = 0
 183              		@ link register save eliminated.
 184              		.loc 10 24 20 is_stmt 0 view .LVU19
 185 0000 7047     		bx	lr
 186              		.cfi_endproc
 187              	.LFE4522:
 189              		.weak	_ZN7daisysp10WhiteNoiseD1Ev
 190              		.thumb_set _ZN7daisysp10WhiteNoiseD1Ev,_ZN7daisysp10WhiteNoiseD2Ev
 191              		.section	.text._ZN7daisysp9DelayLineIfLj48000EED2Ev,"axG",%progbits,_ZN7daisysp9DelayLineIfLj48000
 192              		.align	1
 193              		.p2align 2,,3
 194              		.weak	_ZN7daisysp9DelayLineIfLj48000EED2Ev
 195              		.syntax unified
 196              		.thumb
 197              		.thumb_func
 198              		.fpu fpv5-d16
 200              	_ZN7daisysp9DelayLineIfLj48000EED2Ev:
 201              	.LVL6:
 202              	.LFB5254:
 203              		.file 11 "../../DaisySP//Source/Utility/delayline.h"
   1:../../DaisySP//Source/Utility/delayline.h **** /*
   2:../../DaisySP//Source/Utility/delayline.h **** Copyright (c) 2020 Electrosmith, Corp
   3:../../DaisySP//Source/Utility/delayline.h **** 
   4:../../DaisySP//Source/Utility/delayline.h **** Use of this source code is governed by an MIT-style
   5:../../DaisySP//Source/Utility/delayline.h **** license that can be found in the LICENSE file or at
   6:../../DaisySP//Source/Utility/delayline.h **** https://opensource.org/licenses/MIT.
   7:../../DaisySP//Source/Utility/delayline.h **** */
   8:../../DaisySP//Source/Utility/delayline.h **** 
   9:../../DaisySP//Source/Utility/delayline.h **** #pragma once
  10:../../DaisySP//Source/Utility/delayline.h **** #ifndef DSY_DELAY_H
  11:../../DaisySP//Source/Utility/delayline.h **** #define DSY_DELAY_H
  12:../../DaisySP//Source/Utility/delayline.h **** #include <stdlib.h>
  13:../../DaisySP//Source/Utility/delayline.h **** #include <stdint.h>
  14:../../DaisySP//Source/Utility/delayline.h **** namespace daisysp
  15:../../DaisySP//Source/Utility/delayline.h **** {
  16:../../DaisySP//Source/Utility/delayline.h **** /** Simple Delay line.
  17:../../DaisySP//Source/Utility/delayline.h **** November 2019
  18:../../DaisySP//Source/Utility/delayline.h **** 
  19:../../DaisySP//Source/Utility/delayline.h **** Converted to Template December 2019
  20:../../DaisySP//Source/Utility/delayline.h **** 
  21:../../DaisySP//Source/Utility/delayline.h **** declaration example: (1 second of floats)
  22:../../DaisySP//Source/Utility/delayline.h **** 
  23:../../DaisySP//Source/Utility/delayline.h **** DelayLine<float, SAMPLE_RATE> del;
  24:../../DaisySP//Source/Utility/delayline.h **** 
  25:../../DaisySP//Source/Utility/delayline.h **** By: shensley
  26:../../DaisySP//Source/Utility/delayline.h **** */
  27:../../DaisySP//Source/Utility/delayline.h **** template <typename T, size_t max_size>
  28:../../DaisySP//Source/Utility/delayline.h **** class DelayLine
  29:../../DaisySP//Source/Utility/delayline.h **** {
  30:../../DaisySP//Source/Utility/delayline.h ****   public:
  31:../../DaisySP//Source/Utility/delayline.h ****     DelayLine() {}
  32:../../DaisySP//Source/Utility/delayline.h ****     ~DelayLine() {}
 204              		.loc 11 32 5 is_stmt 1 view -0
ARM GAS  C:\Users\louis\AppData\Local\Temp\ccZ2fpVL.s 			page 14


 205              		.cfi_startproc
 206              		@ args = 0, pretend = 0, frame = 0
 207              		@ frame_needed = 0, uses_anonymous_args = 0
 208              		@ link register save eliminated.
 209              		.loc 11 32 19 is_stmt 0 view .LVU21
 210 0000 7047     		bx	lr
 211              		.cfi_endproc
 212              	.LFE5254:
 214              		.weak	_ZN7daisysp9DelayLineIfLj48000EED1Ev
 215              		.thumb_set _ZN7daisysp9DelayLineIfLj48000EED1Ev,_ZN7daisysp9DelayLineIfLj48000EED2Ev
 216              		.section	.text._Z13AudioCallbackPKfPfj,"ax",%progbits
 217              		.align	1
 218              		.p2align 2,,3
 219              		.global	_Z13AudioCallbackPKfPfj
 220              		.syntax unified
 221              		.thumb
 222              		.thumb_func
 223              		.fpu fpv5-d16
 225              	_Z13AudioCallbackPKfPfj:
 226              	.LVL7:
 227              	.LFB4681:
 228              		.file 12 "test-daisy-seed.cpp"
   1:test-daisy-seed.cpp **** #include "daisy_seed.h"
   2:test-daisy-seed.cpp **** #include "daisysp.h"
   3:test-daisy-seed.cpp **** 
   4:test-daisy-seed.cpp **** using namespace daisy;
   5:test-daisy-seed.cpp **** using namespace daisysp;
   6:test-daisy-seed.cpp **** 
   7:test-daisy-seed.cpp **** // ------------------------------------------------------------
   8:test-daisy-seed.cpp **** // structure d'un accord
   9:test-daisy-seed.cpp **** // ------------------------------------------------------------
  10:test-daisy-seed.cpp **** typedef struct
  11:test-daisy-seed.cpp **** {
  12:test-daisy-seed.cpp ****     float notes[3];
  13:test-daisy-seed.cpp ****     int size;
  14:test-daisy-seed.cpp **** } Chord;
  15:test-daisy-seed.cpp **** 
  16:test-daisy-seed.cpp **** // ------------------------------------------------------------
  17:test-daisy-seed.cpp **** // horloges
  18:test-daisy-seed.cpp **** // ------------------------------------------------------------
  19:test-daisy-seed.cpp **** uint32_t note_counter  = 0;
  20:test-daisy-seed.cpp **** uint32_t chord_counter = 0;
  21:test-daisy-seed.cpp **** uint32_t drum_counter  = 0;
  22:test-daisy-seed.cpp **** 
  23:test-daisy-seed.cpp **** uint32_t samples_per_note  = 0;
  24:test-daisy-seed.cpp **** uint32_t samples_per_chord = 0;
  25:test-daisy-seed.cpp **** uint32_t samples_per_step  = 0;
  26:test-daisy-seed.cpp **** 
  27:test-daisy-seed.cpp **** // ------------------------------------------------------------
  28:test-daisy-seed.cpp **** // hardware
  29:test-daisy-seed.cpp **** // ------------------------------------------------------------
  30:test-daisy-seed.cpp **** DaisySeed hw;
  31:test-daisy-seed.cpp **** 
  32:test-daisy-seed.cpp **** // ------------------------------------------------------------
  33:test-daisy-seed.cpp **** // effets + sidechain
  34:test-daisy-seed.cpp **** // ------------------------------------------------------------
  35:test-daisy-seed.cpp **** 
ARM GAS  C:\Users\louis\AppData\Local\Temp\ccZ2fpVL.s 			page 15


  36:test-daisy-seed.cpp **** // delay mlodie
  37:test-daisy-seed.cpp **** DelayLine<float, 48000> delay_line;
  38:test-daisy-seed.cpp **** float delay_feedback = 0.35f;
  39:test-daisy-seed.cpp **** float delay_mix      = 0.25f;
  40:test-daisy-seed.cpp **** 
  41:test-daisy-seed.cpp **** // filtre svf mlodie
  42:test-daisy-seed.cpp **** Svf melody_filter;
  43:test-daisy-seed.cpp **** 
  44:test-daisy-seed.cpp **** // lfo cutoff mlodie
  45:test-daisy-seed.cpp **** Oscillator lfo;
  46:test-daisy-seed.cpp **** 
  47:test-daisy-seed.cpp **** // lfo volume accords
  48:test-daisy-seed.cpp **** Oscillator chord_lfo;
  49:test-daisy-seed.cpp **** float chord_lfo_depth = 0.4f;
  50:test-daisy-seed.cpp **** 
  51:test-daisy-seed.cpp **** // filtre global
  52:test-daisy-seed.cpp **** OnePole lp_filter;
  53:test-daisy-seed.cpp **** 
  54:test-daisy-seed.cpp **** // sidechain
  55:test-daisy-seed.cpp **** float sidechain_amount = 0.6f;
  56:test-daisy-seed.cpp **** float sidechain_env    = 0.0f;
  57:test-daisy-seed.cpp **** 
  58:test-daisy-seed.cpp **** // ------------------------------------------------------------
  59:test-daisy-seed.cpp **** // oscillateurs & enveloppes
  60:test-daisy-seed.cpp **** // ------------------------------------------------------------
  61:test-daisy-seed.cpp **** 
  62:test-daisy-seed.cpp **** // mlodie
  63:test-daisy-seed.cpp **** Oscillator osc;
  64:test-daisy-seed.cpp **** AdEnv env;
  65:test-daisy-seed.cpp **** 
  66:test-daisy-seed.cpp **** // accords
  67:test-daisy-seed.cpp **** Oscillator chord_osc1, chord_osc2, chord_osc3;
  68:test-daisy-seed.cpp **** AdEnv chord_env;
  69:test-daisy-seed.cpp **** 
  70:test-daisy-seed.cpp **** // drums : kick
  71:test-daisy-seed.cpp **** Oscillator kick_osc;
  72:test-daisy-seed.cpp **** AdEnv kick_env;
  73:test-daisy-seed.cpp **** 
  74:test-daisy-seed.cpp **** // drums : hihat
  75:test-daisy-seed.cpp **** WhiteNoise noise;
  76:test-daisy-seed.cpp **** Svf hihat_filter;
  77:test-daisy-seed.cpp **** AdEnv hihat_env;
  78:test-daisy-seed.cpp **** 
  79:test-daisy-seed.cpp **** // ------------------------------------------------------------
  80:test-daisy-seed.cpp **** // progression d'accords
  81:test-daisy-seed.cpp **** // ------------------------------------------------------------
  82:test-daisy-seed.cpp **** Chord chords[] =
  83:test-daisy-seed.cpp **** {
  84:test-daisy-seed.cpp ****     {{220.0f, 261.63f, 329.63f}, 3},
  85:test-daisy-seed.cpp ****     {{261.63f, 329.63f, 392.0f}, 3},
  86:test-daisy-seed.cpp ****     {{196.0f, 246.94f, 293.66f}, 3}
  87:test-daisy-seed.cpp **** };
  88:test-daisy-seed.cpp **** 
  89:test-daisy-seed.cpp **** const int chord_count = 3;
  90:test-daisy-seed.cpp **** int current_chord = 0;
  91:test-daisy-seed.cpp **** 
  92:test-daisy-seed.cpp **** // ------------------------------------------------------------
ARM GAS  C:\Users\louis\AppData\Local\Temp\ccZ2fpVL.s 			page 16


  93:test-daisy-seed.cpp **** // audio callback
  94:test-daisy-seed.cpp **** // ------------------------------------------------------------
  95:test-daisy-seed.cpp **** void AudioCallback(AudioHandle::InterleavingInputBuffer in,
  96:test-daisy-seed.cpp ****                    AudioHandle::InterleavingOutputBuffer out,
  97:test-daisy-seed.cpp ****                    size_t size)
  98:test-daisy-seed.cpp **** {
 229              		.loc 12 98 1 is_stmt 1 view -0
 230              		.cfi_startproc
 231              		@ args = 0, pretend = 0, frame = 16
 232              		@ frame_needed = 0, uses_anonymous_args = 0
  99:test-daisy-seed.cpp ****     float melody_volume = 0.05f;
 233              		.loc 12 99 5 view .LVU23
 100:test-daisy-seed.cpp ****     float chord_volume  = 0.045f;
 234              		.loc 12 100 5 view .LVU24
 101:test-daisy-seed.cpp ****     float drum_volume   = 0.6f;
 235              		.loc 12 101 5 view .LVU25
 102:test-daisy-seed.cpp **** 
 103:test-daisy-seed.cpp ****     for(size_t i = 0; i < size; i += 2)
 236              		.loc 12 103 5 view .LVU26
 237              	.LBB261:
 238              		.loc 12 103 25 view .LVU27
 239 0000 002A     		cmp	r2, #0
 240 0002 00F03582 		beq	.L36
 241 0006 0023     		movs	r3, #0
 242 0008 013A     		subs	r2, r2, #1
 243              	.LVL8:
 244              		.loc 12 103 25 is_stmt 0 view .LVU28
 245              	.LBE261:
  98:test-daisy-seed.cpp ****     float melody_volume = 0.05f;
 246              		.loc 12 98 1 view .LVU29
 247 000a 2DE9F04F 		push	{r4, r5, r6, r7, r8, r9, r10, fp, lr}
 248              		.cfi_def_cfa_offset 36
 249              		.cfi_offset 4, -36
 250              		.cfi_offset 5, -32
 251              		.cfi_offset 6, -28
 252              		.cfi_offset 7, -24
 253              		.cfi_offset 8, -20
 254              		.cfi_offset 9, -16
 255              		.cfi_offset 10, -12
 256              		.cfi_offset 11, -8
 257              		.cfi_offset 14, -4
 258 000e 2DED088B 		vpush.64	{d8, d9, d10, d11}
 259              		.cfi_def_cfa_offset 68
 260              		.cfi_offset 80, -68
 261              		.cfi_offset 81, -64
 262              		.cfi_offset 82, -60
 263              		.cfi_offset 83, -56
 264              		.cfi_offset 84, -52
 265              		.cfi_offset 85, -48
 266              		.cfi_offset 86, -44
 267              		.cfi_offset 87, -40
 268 0012 85B0     		sub	sp, sp, #20
 269              		.cfi_def_cfa_offset 88
 270 0014 0D46     		mov	r5, r1
 271 0016 C64C     		ldr	r4, .L41
 272              	.LBB373:
 273              		.loc 12 103 25 view .LVU30
ARM GAS  C:\Users\louis\AppData\Local\Temp\ccZ2fpVL.s 			page 17


 274 0018 0193     		str	r3, [sp, #4]
 275 001a 5308     		lsrs	r3, r2, #1
 276 001c C54E     		ldr	r6, .L41+4
 277 001e DFF8ACA3 		ldr	r10, .L41+156
 278 0022 DFF8AC93 		ldr	r9, .L41+160
 279 0026 DFF8AC83 		ldr	r8, .L41+164
 280 002a 0293     		str	r3, [sp, #8]
 281 002c 27E0     		b	.L23
 282              	.LVL9:
 283              	.L18:
 284              	.LBB262:
 104:test-daisy-seed.cpp ****     {
 105:test-daisy-seed.cpp ****         // ================== mlodie ==================
 106:test-daisy-seed.cpp ****         float melody = osc.Process() * env.Process();
 107:test-daisy-seed.cpp **** 
 108:test-daisy-seed.cpp ****         float cutoff = 800.0f + lfo.Process() * 600.0f;
 109:test-daisy-seed.cpp ****         melody_filter.SetFreq(cutoff);
 110:test-daisy-seed.cpp ****         melody_filter.Process(melody);
 111:test-daisy-seed.cpp ****         melody = melody_filter.Low();
 112:test-daisy-seed.cpp **** 
 113:test-daisy-seed.cpp ****         float delayed = delay_line.Read();
 114:test-daisy-seed.cpp ****         delay_line.Write(melody + delayed * delay_feedback);
 115:test-daisy-seed.cpp ****         melody = melody * (1.0f - delay_mix) + delayed * delay_mix;
 116:test-daisy-seed.cpp ****         melody *= melody_volume;
 117:test-daisy-seed.cpp **** 
 118:test-daisy-seed.cpp ****         // ================== sidechain ==================
 119:test-daisy-seed.cpp ****         float melody_level = fabsf(melody);
 120:test-daisy-seed.cpp ****         float attack  = 0.01f;
 121:test-daisy-seed.cpp ****         float release = 0.0005f;
 122:test-daisy-seed.cpp **** 
 123:test-daisy-seed.cpp ****         if(melody_level > sidechain_env)
 124:test-daisy-seed.cpp ****             sidechain_env += attack * (melody_level - sidechain_env);
 125:test-daisy-seed.cpp ****         else
 126:test-daisy-seed.cpp ****             sidechain_env += release * (melody_level - sidechain_env);
 127:test-daisy-seed.cpp **** 
 128:test-daisy-seed.cpp ****         float sidechain_gain = 1.0f - sidechain_env * sidechain_amount;
 129:test-daisy-seed.cpp ****         if(sidechain_gain < 0.0f)
 130:test-daisy-seed.cpp ****             sidechain_gain = 0.0f;
 131:test-daisy-seed.cpp **** 
 132:test-daisy-seed.cpp ****         // ================== accords ==================
 133:test-daisy-seed.cpp ****         float chord_sig =
 134:test-daisy-seed.cpp ****             chord_osc1.Process() +
 135:test-daisy-seed.cpp ****             chord_osc2.Process() +
 136:test-daisy-seed.cpp ****             chord_osc3.Process();
 137:test-daisy-seed.cpp **** 
 138:test-daisy-seed.cpp ****         chord_sig *= chord_env.Process();
 139:test-daisy-seed.cpp **** 
 140:test-daisy-seed.cpp ****         float lfo_val = (chord_lfo.Process() + 1.0f) * 0.5f;
 141:test-daisy-seed.cpp ****         float modulated_chord_volume =
 142:test-daisy-seed.cpp ****             chord_volume * (1.0f - chord_lfo_depth + lfo_val * chord_lfo_depth);
 143:test-daisy-seed.cpp **** 
 144:test-daisy-seed.cpp ****         chord_sig *= modulated_chord_volume * sidechain_gain;
 145:test-daisy-seed.cpp **** 
 146:test-daisy-seed.cpp ****         // ================== drums ==================
 147:test-daisy-seed.cpp ****         float drums = 0.0f;
 148:test-daisy-seed.cpp **** 
 149:test-daisy-seed.cpp ****         // kick
ARM GAS  C:\Users\louis\AppData\Local\Temp\ccZ2fpVL.s 			page 18


 150:test-daisy-seed.cpp ****         float kick_pitch = 50.0f + kick_env.Process() * 90.0f;
 151:test-daisy-seed.cpp ****         kick_osc.SetFreq(kick_pitch);
 152:test-daisy-seed.cpp ****         drums += kick_osc.Process() * kick_env.Process();
 153:test-daisy-seed.cpp **** 
 154:test-daisy-seed.cpp ****         // hihat
 155:test-daisy-seed.cpp ****         float hh = noise.Process();
 156:test-daisy-seed.cpp ****         hihat_filter.Process(hh);
 157:test-daisy-seed.cpp ****         hh = hihat_filter.High();
 158:test-daisy-seed.cpp ****         drums += hh * hihat_env.Process() * 0.3f;
 159:test-daisy-seed.cpp **** 
 160:test-daisy-seed.cpp ****         drums *= drum_volume;
 161:test-daisy-seed.cpp **** 
 162:test-daisy-seed.cpp ****         // ================== mix final ==================
 163:test-daisy-seed.cpp ****         float sig = melody + chord_sig + drums;
 164:test-daisy-seed.cpp ****         sig = lp_filter.Process(sig);
 165:test-daisy-seed.cpp **** 
 166:test-daisy-seed.cpp ****         out[i]     = sig;
 167:test-daisy-seed.cpp ****         out[i + 1] = sig;
 168:test-daisy-seed.cpp **** 
 169:test-daisy-seed.cpp ****         // ================== horloge mlodie ==================
 170:test-daisy-seed.cpp ****         note_counter++;
 171:test-daisy-seed.cpp ****         if(note_counter >= samples_per_note)
 172:test-daisy-seed.cpp ****         {
 173:test-daisy-seed.cpp ****             note_counter = 0;
 174:test-daisy-seed.cpp ****             if(rand() % 100 < 70)
 175:test-daisy-seed.cpp ****             {
 176:test-daisy-seed.cpp ****                 Chord &c = chords[current_chord];
 177:test-daisy-seed.cpp ****                 osc.SetFreq(c.notes[rand() % c.size] * 2.0f);
 178:test-daisy-seed.cpp ****                 env.Trigger();
 179:test-daisy-seed.cpp ****             }
 180:test-daisy-seed.cpp ****         }
 181:test-daisy-seed.cpp **** 
 182:test-daisy-seed.cpp ****         // ================== horloge accords ==================
 183:test-daisy-seed.cpp ****         chord_counter++;
 285              		.loc 12 183 9 is_stmt 1 view .LVU31
 286              		.loc 12 183 22 is_stmt 0 view .LVU32
 287 002e D8F80030 		ldr	r3, [r8]
 184:test-daisy-seed.cpp ****         if(chord_counter >= samples_per_chord)
 288              		.loc 12 184 9 view .LVU33
 289 0032 C14A     		ldr	r2, .L41+8
 183:test-daisy-seed.cpp ****         if(chord_counter >= samples_per_chord)
 290              		.loc 12 183 22 view .LVU34
 291 0034 0133     		adds	r3, r3, #1
 292              		.loc 12 184 9 view .LVU35
 293 0036 1268     		ldr	r2, [r2]
 183:test-daisy-seed.cpp ****         if(chord_counter >= samples_per_chord)
 294              		.loc 12 183 22 view .LVU36
 295 0038 C8F80030 		str	r3, [r8]
 296              		.loc 12 184 9 is_stmt 1 view .LVU37
 297 003c 9342     		cmp	r3, r2
 298 003e 80F0CB81 		bcs	.L39
 299              	.L20:
 185:test-daisy-seed.cpp ****         {
 186:test-daisy-seed.cpp ****             chord_counter = 0;
 187:test-daisy-seed.cpp ****             current_chord = rand() % chord_count;
 188:test-daisy-seed.cpp **** 
 189:test-daisy-seed.cpp ****             chord_osc1.SetFreq(chords[current_chord].notes[0]);
ARM GAS  C:\Users\louis\AppData\Local\Temp\ccZ2fpVL.s 			page 19


 190:test-daisy-seed.cpp ****             chord_osc2.SetFreq(chords[current_chord].notes[1] * 1.005f);
 191:test-daisy-seed.cpp ****             chord_osc3.SetFreq(chords[current_chord].notes[2] * 0.995f);
 192:test-daisy-seed.cpp **** 
 193:test-daisy-seed.cpp ****             chord_env.Trigger();
 194:test-daisy-seed.cpp ****         }
 195:test-daisy-seed.cpp **** 
 196:test-daisy-seed.cpp ****         // ================== horloge drums ==================
 197:test-daisy-seed.cpp ****         drum_counter++;
 300              		.loc 12 197 9 view .LVU38
 301              		.loc 12 197 21 is_stmt 0 view .LVU39
 302 0042 BE4A     		ldr	r2, .L41+12
 303 0044 1368     		ldr	r3, [r2]
 304 0046 0133     		adds	r3, r3, #1
 305 0048 1360     		str	r3, [r2]
 198:test-daisy-seed.cpp ****         
 199:test-daisy-seed.cpp ****         // hihat sur contretemps (mi-step)
 200:test-daisy-seed.cpp ****         if(drum_counter == samples_per_step / 2)
 306              		.loc 12 200 9 is_stmt 1 view .LVU40
 307              		.loc 12 200 45 is_stmt 0 view .LVU41
 308 004a BD4A     		ldr	r2, .L41+16
 309 004c 1268     		ldr	r2, [r2]
 310              		.loc 12 200 9 view .LVU42
 311 004e B3EB520F 		cmp	r3, r2, lsr #1
 312 0052 03D1     		bne	.L21
 201:test-daisy-seed.cpp ****         {
 202:test-daisy-seed.cpp ****             hihat_env.Trigger();
 313              		.loc 12 202 13 is_stmt 1 view .LVU43
 314              	.LVL10:
 315              	.LBB263:
 316              	.LBI263:
  44:../../DaisySP//Source/Control/adenv.h ****     /** Initializes the ad envelope.
  45:../../DaisySP//Source/Control/adenv.h **** 
  46:../../DaisySP//Source/Control/adenv.h ****         Defaults:
  47:../../DaisySP//Source/Control/adenv.h ****             - current segment = idle
  48:../../DaisySP//Source/Control/adenv.h ****             - curve = linear
  49:../../DaisySP//Source/Control/adenv.h ****             - phase = 0
  50:../../DaisySP//Source/Control/adenv.h ****             - min = 0
  51:../../DaisySP//Source/Control/adenv.h ****             - max = 1
  52:../../DaisySP//Source/Control/adenv.h **** 
  53:../../DaisySP//Source/Control/adenv.h ****         \param sample_rate      sample rate of the audio engine being run
  54:../../DaisySP//Source/Control/adenv.h ****     */
  55:../../DaisySP//Source/Control/adenv.h ****     void Init(float sample_rate);
  56:../../DaisySP//Source/Control/adenv.h **** 
  57:../../DaisySP//Source/Control/adenv.h ****     /** Processes the current sample of the envelope. This should be called once
  58:../../DaisySP//Source/Control/adenv.h ****         per sample period.
  59:../../DaisySP//Source/Control/adenv.h ****         \return the current envelope value.
  60:../../DaisySP//Source/Control/adenv.h ****     */
  61:../../DaisySP//Source/Control/adenv.h ****     float Process();
  62:../../DaisySP//Source/Control/adenv.h **** 
  63:../../DaisySP//Source/Control/adenv.h ****     /** Starts or retriggers the envelope.*/
  64:../../DaisySP//Source/Control/adenv.h ****     inline void Trigger() { trigger_ = 1; }
 317              		.loc 6 64 17 view .LVU44
 318              	.LBB264:
 319              		.loc 6 64 29 view .LVU45
 320              		.loc 6 64 38 is_stmt 0 view .LVU46
 321 0054 BB49     		ldr	r1, .L41+20
 322 0056 0120     		movs	r0, #1
ARM GAS  C:\Users\louis\AppData\Local\Temp\ccZ2fpVL.s 			page 20


 323 0058 81F83400 		strb	r0, [r1, #52]
 324              	.LVL11:
 325              	.L21:
 326              		.loc 6 64 38 view .LVU47
 327              	.LBE264:
 328              	.LBE263:
 203:test-daisy-seed.cpp ****         }
 204:test-daisy-seed.cpp **** 
 205:test-daisy-seed.cpp ****         // kick sur chaque temps
 206:test-daisy-seed.cpp ****         if(drum_counter >= samples_per_step)
 329              		.loc 12 206 9 is_stmt 1 view .LVU48
 330 005c 9342     		cmp	r3, r2
 331 005e 06D3     		bcc	.L22
 207:test-daisy-seed.cpp ****         {
 208:test-daisy-seed.cpp ****             drum_counter = 0;
 332              		.loc 12 208 13 view .LVU49
 333              		.loc 12 208 26 is_stmt 0 view .LVU50
 334 0060 0023     		movs	r3, #0
 335 0062 B64A     		ldr	r2, .L41+12
 336 0064 1360     		str	r3, [r2]
 209:test-daisy-seed.cpp **** 
 210:test-daisy-seed.cpp ****             // kick  chaque temps
 211:test-daisy-seed.cpp ****             kick_env.Trigger();
 337              		.loc 12 211 13 is_stmt 1 view .LVU51
 338              	.LVL12:
 339              	.LBB265:
 340              	.LBI265:
 341              		.loc 6 64 17 view .LVU52
 342              	.LBB266:
 343              		.loc 6 64 29 view .LVU53
 344              		.loc 6 64 38 is_stmt 0 view .LVU54
 345 0066 0122     		movs	r2, #1
 346 0068 B74B     		ldr	r3, .L41+24
 347 006a 83F83420 		strb	r2, [r3, #52]
 348              	.LVL13:
 349              	.L22:
 350              		.loc 6 64 38 view .LVU55
 351              	.LBE266:
 352              	.LBE265:
 353              	.LBE262:
 103:test-daisy-seed.cpp ****     {
 354              		.loc 12 103 5 is_stmt 1 discriminator 2 view .LVU56
 103:test-daisy-seed.cpp ****     {
 355              		.loc 12 103 25 discriminator 2 view .LVU57
 356 006e 019A     		ldr	r2, [sp, #4]
 357 0070 0835     		adds	r5, r5, #8
 358 0072 0299     		ldr	r1, [sp, #8]
 359 0074 531C     		adds	r3, r2, #1
 360 0076 9142     		cmp	r1, r2
 361 0078 00F0F581 		beq	.L40
 362 007c 0193     		str	r3, [sp, #4]
 363              	.LVL14:
 364              	.L23:
 365              	.LBB372:
 106:test-daisy-seed.cpp **** 
 366              		.loc 12 106 9 view .LVU58
 106:test-daisy-seed.cpp **** 
ARM GAS  C:\Users\louis\AppData\Local\Temp\ccZ2fpVL.s 			page 21


 367              		.loc 12 106 35 is_stmt 0 view .LVU59
 368 007e B348     		ldr	r0, .L41+28
 128:test-daisy-seed.cpp ****         if(sidechain_gain < 0.0f)
 369              		.loc 12 128 15 view .LVU60
 370 0080 F7EE008A 		vmov.f32	s17, #1.0e+0
 106:test-daisy-seed.cpp **** 
 371              		.loc 12 106 35 view .LVU61
 372 0084 FFF7FEFF 		bl	_ZN7daisysp10Oscillator7ProcessEv
 373              	.LVL15:
 374 0088 B0EE408A 		vmov.f32	s16, s0
 106:test-daisy-seed.cpp **** 
 375              		.loc 12 106 51 view .LVU62
 376 008c B048     		ldr	r0, .L41+32
 377 008e FFF7FEFF 		bl	_ZN7daisysp5AdEnv7ProcessEv
 378              	.LVL16:
 108:test-daisy-seed.cpp ****         melody_filter.SetFreq(cutoff);
 379              		.loc 12 108 44 view .LVU63
 380 0092 B048     		ldr	r0, .L41+36
 106:test-daisy-seed.cpp **** 
 381              		.loc 12 106 52 view .LVU64
 382 0094 28EE008A 		vmul.f32	s16, s16, s0
 383              	.LVL17:
 108:test-daisy-seed.cpp ****         melody_filter.SetFreq(cutoff);
 384              		.loc 12 108 9 is_stmt 1 view .LVU65
 108:test-daisy-seed.cpp ****         melody_filter.SetFreq(cutoff);
 385              		.loc 12 108 44 is_stmt 0 view .LVU66
 386 0098 FFF7FEFF 		bl	_ZN7daisysp10Oscillator7ProcessEv
 387              	.LVL18:
 108:test-daisy-seed.cpp ****         melody_filter.SetFreq(cutoff);
 388              		.loc 12 108 49 view .LVU67
 389 009c 9FEDAE7A 		vldr.32	s14, .L41+40
 390 00a0 DFEDAE7A 		vldr.32	s15, .L41+44
 391              	.LVL19:
 109:test-daisy-seed.cpp ****         melody_filter.Process(melody);
 392              		.loc 12 109 9 is_stmt 1 view .LVU68
 109:test-daisy-seed.cpp ****         melody_filter.Process(melody);
 393              		.loc 12 109 30 is_stmt 0 view .LVU69
 394 00a4 AE48     		ldr	r0, .L41+48
 395 00a6 E0EE077A 		vfma.f32	s15, s0, s14
 396              	.LVL20:
 152:test-daisy-seed.cpp **** 
 397              		.loc 12 152 15 view .LVU70
 398 00aa DFEDAEAA 		vldr.32	s21, .L41+52
 399 00ae F0EE6A9A 		vmov.f32	s19, s21
 109:test-daisy-seed.cpp ****         melody_filter.Process(melody);
 400              		.loc 12 109 30 view .LVU71
 401 00b2 B0EE670A 		vmov.f32	s0, s15
 402 00b6 FFF7FEFF 		bl	_ZN7daisysp3Svf7SetFreqEf
 403              	.LVL21:
 110:test-daisy-seed.cpp ****         melody = melody_filter.Low();
 404              		.loc 12 110 9 is_stmt 1 view .LVU72
 110:test-daisy-seed.cpp ****         melody = melody_filter.Low();
 405              		.loc 12 110 30 is_stmt 0 view .LVU73
 406 00ba B0EE480A 		vmov.f32	s0, s16
 407 00be A848     		ldr	r0, .L41+48
 408 00c0 FFF7FEFF 		bl	_ZN7daisysp3Svf7ProcessEf
 409              	.LVL22:
ARM GAS  C:\Users\louis\AppData\Local\Temp\ccZ2fpVL.s 			page 22


 111:test-daisy-seed.cpp **** 
 410              		.loc 12 111 9 is_stmt 1 view .LVU74
 411              	.LBB267:
 412              	.LBI267:
  31:../../DaisySP//Source/Filters/svf.h ****     /** Initializes the filter
  32:../../DaisySP//Source/Filters/svf.h ****         float sample_rate - sample rate of the audio engine being run, and the frequency that the P
  33:../../DaisySP//Source/Filters/svf.h ****     */
  34:../../DaisySP//Source/Filters/svf.h ****     void Init(float sample_rate);
  35:../../DaisySP//Source/Filters/svf.h **** 
  36:../../DaisySP//Source/Filters/svf.h **** 
  37:../../DaisySP//Source/Filters/svf.h ****     /** 
  38:../../DaisySP//Source/Filters/svf.h ****         Process the input signal, updating all of the outputs.
  39:../../DaisySP//Source/Filters/svf.h ****     */
  40:../../DaisySP//Source/Filters/svf.h ****     void Process(float in);
  41:../../DaisySP//Source/Filters/svf.h **** 
  42:../../DaisySP//Source/Filters/svf.h **** 
  43:../../DaisySP//Source/Filters/svf.h ****     /** sets the frequency of the cutoff frequency. 
  44:../../DaisySP//Source/Filters/svf.h ****         f must be between 0.0 and sample_rate / 3
  45:../../DaisySP//Source/Filters/svf.h ****     */
  46:../../DaisySP//Source/Filters/svf.h ****     void SetFreq(float f);
  47:../../DaisySP//Source/Filters/svf.h **** 
  48:../../DaisySP//Source/Filters/svf.h ****     /** sets the resonance of the filter.
  49:../../DaisySP//Source/Filters/svf.h ****         Must be between 0.0 and 1.0 to ensure stability.
  50:../../DaisySP//Source/Filters/svf.h ****     */
  51:../../DaisySP//Source/Filters/svf.h ****     void SetRes(float r);
  52:../../DaisySP//Source/Filters/svf.h **** 
  53:../../DaisySP//Source/Filters/svf.h ****     /** sets the drive of the filter 
  54:../../DaisySP//Source/Filters/svf.h ****         affects the response of the resonance of the filter
  55:../../DaisySP//Source/Filters/svf.h ****     */
  56:../../DaisySP//Source/Filters/svf.h ****     void SetDrive(float d);
  57:../../DaisySP//Source/Filters/svf.h ****     /** lowpass output
  58:../../DaisySP//Source/Filters/svf.h ****         \return low pass output of the filter
  59:../../DaisySP//Source/Filters/svf.h ****     */
  60:../../DaisySP//Source/Filters/svf.h ****     inline float Low() { return out_low_; }
 413              		.loc 8 60 18 view .LVU75
 414              	.LBB268:
 415              		.loc 8 60 26 view .LVU76
 416              	.LBE268:
 417              	.LBE267:
 115:test-daisy-seed.cpp ****         melody *= melody_volume;
 418              		.loc 12 115 33 is_stmt 0 view .LVU77
 419 00c4 A84B     		ldr	r3, .L41+56
 420              	.LBB271:
 421              	.LBB272:
  33:../../DaisySP//Source/Utility/delayline.h ****     /** initializes the delay line by clearing the values within, and setting delay to 1 sample.
  34:../../DaisySP//Source/Utility/delayline.h ****     */
  35:../../DaisySP//Source/Utility/delayline.h ****     void Init() { Reset(); }
  36:../../DaisySP//Source/Utility/delayline.h ****     /** clears buffer, sets write ptr to 0, and delay to 1 sample.
  37:../../DaisySP//Source/Utility/delayline.h ****     */
  38:../../DaisySP//Source/Utility/delayline.h ****     void Reset()
  39:../../DaisySP//Source/Utility/delayline.h ****     {
  40:../../DaisySP//Source/Utility/delayline.h ****         for(size_t i = 0; i < max_size; i++)
  41:../../DaisySP//Source/Utility/delayline.h ****         {
  42:../../DaisySP//Source/Utility/delayline.h ****             line_[i] = T(0);
  43:../../DaisySP//Source/Utility/delayline.h ****         }
  44:../../DaisySP//Source/Utility/delayline.h ****         write_ptr_ = 0;
  45:../../DaisySP//Source/Utility/delayline.h ****         delay_     = 1;
ARM GAS  C:\Users\louis\AppData\Local\Temp\ccZ2fpVL.s 			page 23


  46:../../DaisySP//Source/Utility/delayline.h ****     }
  47:../../DaisySP//Source/Utility/delayline.h **** 
  48:../../DaisySP//Source/Utility/delayline.h ****     /** sets the delay time in samples
  49:../../DaisySP//Source/Utility/delayline.h ****         If a float is passed in, a fractional component will be calculated for interpolating the de
  50:../../DaisySP//Source/Utility/delayline.h ****     */
  51:../../DaisySP//Source/Utility/delayline.h ****     inline void SetDelay(size_t delay)
  52:../../DaisySP//Source/Utility/delayline.h ****     {
  53:../../DaisySP//Source/Utility/delayline.h ****         frac_  = 0.0f;
  54:../../DaisySP//Source/Utility/delayline.h ****         delay_ = delay < max_size ? delay : max_size - 1;
  55:../../DaisySP//Source/Utility/delayline.h ****     }
  56:../../DaisySP//Source/Utility/delayline.h **** 
  57:../../DaisySP//Source/Utility/delayline.h ****     /** sets the delay time in samples
  58:../../DaisySP//Source/Utility/delayline.h ****         If a float is passed in, a fractional component will be calculated for interpolating the de
  59:../../DaisySP//Source/Utility/delayline.h ****     */
  60:../../DaisySP//Source/Utility/delayline.h ****     inline void SetDelay(float delay)
  61:../../DaisySP//Source/Utility/delayline.h ****     {
  62:../../DaisySP//Source/Utility/delayline.h ****         int32_t int_delay = static_cast<int32_t>(delay);
  63:../../DaisySP//Source/Utility/delayline.h ****         frac_             = delay - static_cast<float>(int_delay);
  64:../../DaisySP//Source/Utility/delayline.h ****         delay_ = static_cast<size_t>(int_delay) < max_size ? int_delay
  65:../../DaisySP//Source/Utility/delayline.h ****                                                            : max_size - 1;
  66:../../DaisySP//Source/Utility/delayline.h ****     }
  67:../../DaisySP//Source/Utility/delayline.h **** 
  68:../../DaisySP//Source/Utility/delayline.h ****     /** writes the sample of type T to the delay line, and advances the write ptr
  69:../../DaisySP//Source/Utility/delayline.h ****     */
  70:../../DaisySP//Source/Utility/delayline.h ****     inline void Write(const T sample)
  71:../../DaisySP//Source/Utility/delayline.h ****     {
  72:../../DaisySP//Source/Utility/delayline.h ****         line_[write_ptr_] = sample;
  73:../../DaisySP//Source/Utility/delayline.h ****         write_ptr_        = (write_ptr_ - 1 + max_size) % max_size;
  74:../../DaisySP//Source/Utility/delayline.h ****     }
  75:../../DaisySP//Source/Utility/delayline.h **** 
  76:../../DaisySP//Source/Utility/delayline.h ****     /** returns the next sample of type T in the delay line, interpolated if necessary.
  77:../../DaisySP//Source/Utility/delayline.h ****     */
  78:../../DaisySP//Source/Utility/delayline.h ****     inline const T Read() const
  79:../../DaisySP//Source/Utility/delayline.h ****     {
  80:../../DaisySP//Source/Utility/delayline.h ****         T a = line_[(write_ptr_ + delay_) % max_size];
 422              		.loc 11 80 43 view .LVU78
 423 00c6 A94A     		ldr	r2, .L41+60
 424 00c8 4BF6803C 		movw	ip, #48000
 425              	.LBE272:
 426              	.LBE271:
 115:test-daisy-seed.cpp ****         melody *= melody_volume;
 427              		.loc 12 115 33 view .LVU79
 428 00cc 93ED007A 		vldr.32	s14, [r3]
 429 00d0 B7EE006A 		vmov.f32	s12, #1.0e+0
 430              	.LBB280:
 431              	.LBB269:
 432              		.loc 8 60 33 view .LVU80
 433 00d4 A24B     		ldr	r3, .L41+48
 434              	.LBE269:
 435              	.LBE280:
 436              	.LBB281:
 437              	.LBB282:
  73:../../DaisySP//Source/Utility/delayline.h ****     }
 438              		.loc 11 73 45 view .LVU81
 439 00d6 4BF67F31 		movw	r1, #47999
 440              	.LBE282:
 441              	.LBE281:
ARM GAS  C:\Users\louis\AppData\Local\Temp\ccZ2fpVL.s 			page 24


 442              	.LBB289:
 443              	.LBB273:
  81:../../DaisySP//Source/Utility/delayline.h ****         T b = line_[(write_ptr_ + delay_ + 1) % max_size];
  82:../../DaisySP//Source/Utility/delayline.h ****         return a + (b - a) * frac_;
 444              		.loc 11 82 30 view .LVU82
 445 00da 94ED004A 		vldr.32	s8, [r4]
 446              	.LBE273:
 447              	.LBE289:
 448              	.LBB290:
 449              	.LBB270:
 450              		.loc 8 60 33 view .LVU83
 451 00de 93ED0C5A 		vldr.32	s10, [r3, #48]
 452              	.LVL23:
 453              		.loc 8 60 33 view .LVU84
 454              	.LBE270:
 455              	.LBE290:
 113:test-daisy-seed.cpp ****         delay_line.Write(melody + delayed * delay_feedback);
 456              		.loc 12 113 9 is_stmt 1 view .LVU85
 457              	.LBB291:
 458              	.LBI271:
  78:../../DaisySP//Source/Utility/delayline.h ****     {
 459              		.loc 11 78 20 view .LVU86
 460              	.LBE291:
 115:test-daisy-seed.cpp ****         melody *= melody_volume;
 461              		.loc 12 115 33 is_stmt 0 view .LVU87
 462 00e2 36EE476A 		vsub.f32	s12, s12, s14
 114:test-daisy-seed.cpp ****         melody = melody * (1.0f - delay_mix) + delayed * delay_mix;
 463              		.loc 12 114 25 view .LVU88
 464 00e6 A24B     		ldr	r3, .L41+64
 116:test-daisy-seed.cpp **** 
 465              		.loc 12 116 16 view .LVU89
 466 00e8 9FEDA28A 		vldr.32	s16, .L41+68
 114:test-daisy-seed.cpp ****         melody = melody * (1.0f - delay_mix) + delayed * delay_mix;
 467              		.loc 12 114 25 view .LVU90
 468 00ec D3ED004A 		vldr.32	s9, [r3]
 123:test-daisy-seed.cpp ****             sidechain_env += attack * (melody_level - sidechain_env);
 469              		.loc 12 123 25 view .LVU91
 470 00f0 A14B     		ldr	r3, .L41+72
 471 00f2 D3ED007A 		vldr.32	s15, [r3]
 472              	.LBB292:
 473              	.LBB274:
  80:../../DaisySP//Source/Utility/delayline.h ****         T b = line_[(write_ptr_ + delay_ + 1) % max_size];
 474              		.loc 11 80 33 view .LVU92
 475 00f6 D4E90103 		ldrd	r0, r3, [r4, #4]
 476 00fa 0344     		add	r3, r3, r0
 477              	.LBE274:
 478              	.LBE292:
 479              	.LBB293:
 480              	.LBB283:
  73:../../DaisySP//Source/Utility/delayline.h ****     }
 481              		.loc 11 73 45 view .LVU93
 482 00fc 0144     		add	r1, r1, r0
  72:../../DaisySP//Source/Utility/delayline.h ****         write_ptr_        = (write_ptr_ - 1 + max_size) % max_size;
 483              		.loc 11 72 27 view .LVU94
 484 00fe 04EB8000 		add	r0, r4, r0, lsl #2
 485              	.LBE283:
 486              	.LBE293:
ARM GAS  C:\Users\louis\AppData\Local\Temp\ccZ2fpVL.s 			page 25


 487              	.LBB294:
 488              	.LBB275:
  80:../../DaisySP//Source/Utility/delayline.h ****         T b = line_[(write_ptr_ + delay_ + 1) % max_size];
 489              		.loc 11 80 43 view .LVU95
 490 0102 A2FB037E 		umull	r7, lr, r2, r3
  81:../../DaisySP//Source/Utility/delayline.h ****         return a + (b - a) * frac_;
 491              		.loc 11 81 42 view .LVU96
 492 0106 03F1010B 		add	fp, r3, #1
  80:../../DaisySP//Source/Utility/delayline.h ****         T b = line_[(write_ptr_ + delay_ + 1) % max_size];
 493              		.loc 11 80 43 view .LVU97
 494 010a 4FEA9E2E 		lsr	lr, lr, #10
 495 010e 0CFB1E33 		mls	r3, ip, lr, r3
  80:../../DaisySP//Source/Utility/delayline.h ****         T b = line_[(write_ptr_ + delay_ + 1) % max_size];
 496              		.loc 11 80 11 view .LVU98
 497 0112 04EB8303 		add	r3, r4, r3, lsl #2
 498 0116 D3ED036A 		vldr.32	s13, [r3, #12]
 499              	.LVL24:
  81:../../DaisySP//Source/Utility/delayline.h ****         return a + (b - a) * frac_;
 500              		.loc 11 81 47 view .LVU99
 501 011a A2FB0B73 		umull	r7, r3, r2, fp
 502              	.LBE275:
 503              	.LBE294:
 504              	.LBB295:
 505              	.LBB284:
  73:../../DaisySP//Source/Utility/delayline.h ****     }
 506              		.loc 11 73 57 view .LVU100
 507 011e A2FB0172 		umull	r7, r2, r2, r1
 508              	.LBE284:
 509              	.LBE295:
 510              	.LBB296:
 511              	.LBB276:
  81:../../DaisySP//Source/Utility/delayline.h ****         return a + (b - a) * frac_;
 512              		.loc 11 81 47 view .LVU101
 513 0122 9B0A     		lsrs	r3, r3, #10
 514              	.LBE276:
 515              	.LBE296:
 516              	.LBB297:
 517              	.LBB285:
  73:../../DaisySP//Source/Utility/delayline.h ****     }
 518              		.loc 11 73 57 view .LVU102
 519 0124 920A     		lsrs	r2, r2, #10
 520              	.LBE285:
 521              	.LBE297:
 522              	.LBB298:
 523              	.LBB277:
  81:../../DaisySP//Source/Utility/delayline.h ****         return a + (b - a) * frac_;
 524              		.loc 11 81 47 view .LVU103
 525 0126 0CFB13BB 		mls	fp, ip, r3, fp
 526              	.LVL25:
  81:../../DaisySP//Source/Utility/delayline.h ****         return a + (b - a) * frac_;
 527              		.loc 11 81 47 view .LVU104
 528              	.LBE277:
 529              	.LBE298:
 128:test-daisy-seed.cpp ****         if(sidechain_gain < 0.0f)
 530              		.loc 12 128 15 view .LVU105
 531 012a 944B     		ldr	r3, .L41+76
 532              	.LBB299:
ARM GAS  C:\Users\louis\AppData\Local\Temp\ccZ2fpVL.s 			page 26


 533              	.LBB286:
  73:../../DaisySP//Source/Utility/delayline.h ****     }
 534              		.loc 11 73 57 view .LVU106
 535 012c 0CFB1211 		mls	r1, ip, r2, r1
 536              	.LBE286:
 537              	.LBE299:
 538              	.LBB300:
 539              	.LBB278:
  81:../../DaisySP//Source/Utility/delayline.h ****         return a + (b - a) * frac_;
 540              		.loc 11 81 11 view .LVU107
 541 0130 04EB8B0B 		add	fp, r4, fp, lsl #2
 542              	.LBE278:
 543              	.LBE300:
 544              	.LBB301:
 545              	.LBB287:
  73:../../DaisySP//Source/Utility/delayline.h ****     }
 546              		.loc 11 73 27 view .LVU108
 547 0134 6160     		str	r1, [r4, #4]
 548              	.LVL26:
  73:../../DaisySP//Source/Utility/delayline.h ****     }
 549              		.loc 11 73 27 view .LVU109
 550              	.LBE287:
 551              	.LBE301:
 552              	.LBB302:
 553              	.LBB279:
 554              		.loc 11 82 23 view .LVU110
 555 0136 DBED035A 		vldr.32	s11, [fp, #12]
 556 013a 75EEE65A 		vsub.f32	s11, s11, s13
 557              		.loc 11 82 30 view .LVU111
 558 013e E5EE846A 		vfma.f32	s13, s11, s8
 559              	.LVL27:
 560              		.loc 11 82 30 view .LVU112
 561              	.LBE279:
 562              	.LBE302:
 114:test-daisy-seed.cpp ****         melody = melody * (1.0f - delay_mix) + delayed * delay_mix;
 563              		.loc 12 114 9 is_stmt 1 view .LVU113
 114:test-daisy-seed.cpp ****         melody = melody * (1.0f - delay_mix) + delayed * delay_mix;
 564              		.loc 12 114 25 is_stmt 0 view .LVU114
 565 0142 F0EE455A 		vmov.f32	s11, s10
 115:test-daisy-seed.cpp ****         melody *= melody_volume;
 566              		.loc 12 115 56 view .LVU115
 567 0146 27EE267A 		vmul.f32	s14, s14, s13
 114:test-daisy-seed.cpp ****         melody = melody * (1.0f - delay_mix) + delayed * delay_mix;
 568              		.loc 12 114 25 view .LVU116
 569 014a E4EEA65A 		vfma.f32	s11, s9, s13
 570              	.LVL28:
 571              	.LBB303:
 572              	.LBI281:
  70:../../DaisySP//Source/Utility/delayline.h ****     {
 573              		.loc 11 70 17 is_stmt 1 view .LVU117
  70:../../DaisySP//Source/Utility/delayline.h ****     {
 574              		.loc 11 70 17 is_stmt 0 view .LVU118
 575              	.LBE303:
 115:test-daisy-seed.cpp ****         melody *= melody_volume;
 576              		.loc 12 115 9 is_stmt 1 view .LVU119
 115:test-daisy-seed.cpp ****         melody *= melody_volume;
 577              		.loc 12 115 16 is_stmt 0 view .LVU120
ARM GAS  C:\Users\louis\AppData\Local\Temp\ccZ2fpVL.s 			page 27


 578 014e A6EE057A 		vfma.f32	s14, s12, s10
 579              	.LVL29:
 116:test-daisy-seed.cpp **** 
 580              		.loc 12 116 9 is_stmt 1 view .LVU121
 581              	.LBB304:
 582              	.LBB288:
  72:../../DaisySP//Source/Utility/delayline.h ****         write_ptr_        = (write_ptr_ - 1 + max_size) % max_size;
 583              		.loc 11 72 27 is_stmt 0 view .LVU122
 584 0152 C0ED035A 		vstr.32	s11, [r0, #12]
 585              	.LBE288:
 586              	.LBE304:
 134:test-daisy-seed.cpp ****             chord_osc2.Process() +
 587              		.loc 12 134 31 view .LVU123
 588 0156 8A48     		ldr	r0, .L41+80
 116:test-daisy-seed.cpp **** 
 589              		.loc 12 116 16 view .LVU124
 590 0158 27EE088A 		vmul.f32	s16, s14, s16
 591              	.LVL30:
 119:test-daisy-seed.cpp ****         float attack  = 0.01f;
 592              		.loc 12 119 9 is_stmt 1 view .LVU125
 119:test-daisy-seed.cpp ****         float attack  = 0.01f;
 593              		.loc 12 119 15 is_stmt 0 view .LVU126
 594 015c B0EEC87A 		vabs.f32	s14, s16
 595              	.LVL31:
 120:test-daisy-seed.cpp ****         float release = 0.0005f;
 596              		.loc 12 120 9 is_stmt 1 view .LVU127
 121:test-daisy-seed.cpp **** 
 597              		.loc 12 121 9 view .LVU128
 123:test-daisy-seed.cpp ****             sidechain_env += attack * (melody_level - sidechain_env);
 598              		.loc 12 123 9 view .LVU129
 599 0160 F4EEC77A 		vcmpe.f32	s15, s14
 124:test-daisy-seed.cpp ****         else
 600              		.loc 12 124 53 is_stmt 0 view .LVU130
 601 0164 37EE677A 		vsub.f32	s14, s14, s15
 602              	.LVL32:
 124:test-daisy-seed.cpp ****         else
 603              		.loc 12 124 13 is_stmt 1 view .LVU131
 123:test-daisy-seed.cpp ****             sidechain_env += attack * (melody_level - sidechain_env);
 604              		.loc 12 123 9 is_stmt 0 view .LVU132
 605 0168 F1EE10FA 		vmrs	APSR_nzcv, FPSCR
 124:test-daisy-seed.cpp ****         else
 606              		.loc 12 124 27 view .LVU133
 607 016c 4CBF     		ite	mi
 608 016e DFED856A 		vldrmi.32	s13, .L41+84
 609              	.LVL33:
 126:test-daisy-seed.cpp **** 
 610              		.loc 12 126 13 is_stmt 1 view .LVU134
 126:test-daisy-seed.cpp **** 
 611              		.loc 12 126 27 is_stmt 0 view .LVU135
 612 0172 DFED856A 		vldrpl.32	s13, .L41+88
 613 0176 E7EE267A 		vfma.f32	s15, s14, s13
 128:test-daisy-seed.cpp ****         if(sidechain_gain < 0.0f)
 614              		.loc 12 128 15 view .LVU136
 615 017a 93ED007A 		vldr.32	s14, [r3]
 616 017e 7E4B     		ldr	r3, .L41+72
 617 0180 E7EE678A 		vfms.f32	s17, s14, s15
 618 0184 C3ED007A 		vstr.32	s15, [r3]
ARM GAS  C:\Users\louis\AppData\Local\Temp\ccZ2fpVL.s 			page 28


 128:test-daisy-seed.cpp ****         if(sidechain_gain < 0.0f)
 619              		.loc 12 128 9 is_stmt 1 view .LVU137
 129:test-daisy-seed.cpp ****             sidechain_gain = 0.0f;
 620              		.loc 12 129 9 is_stmt 0 view .LVU138
 621 0188 F5EEC08A 		vcmpe.f32	s17, #0
 128:test-daisy-seed.cpp ****         if(sidechain_gain < 0.0f)
 622              		.loc 12 128 15 view .LVU139
 623 018c B0EE68BA 		vmov.f32	s22, s17
 624              	.LVL34:
 129:test-daisy-seed.cpp ****             sidechain_gain = 0.0f;
 625              		.loc 12 129 9 is_stmt 1 view .LVU140
 626 0190 F1EE10FA 		vmrs	APSR_nzcv, FPSCR
 130:test-daisy-seed.cpp **** 
 627              		.loc 12 130 28 is_stmt 0 view .LVU141
 628 0194 48BF     		it	mi
 629 0196 9FED73BA 		vldrmi.32	s22, .L41+52
 630              	.LVL35:
 133:test-daisy-seed.cpp ****             chord_osc1.Process() +
 631              		.loc 12 133 9 is_stmt 1 view .LVU142
 134:test-daisy-seed.cpp ****             chord_osc2.Process() +
 632              		.loc 12 134 31 is_stmt 0 view .LVU143
 633 019a FFF7FEFF 		bl	_ZN7daisysp10Oscillator7ProcessEv
 634              	.LVL36:
 635 019e B0EE409A 		vmov.f32	s18, s0
 135:test-daisy-seed.cpp ****             chord_osc3.Process();
 636              		.loc 12 135 31 view .LVU144
 637 01a2 7A48     		ldr	r0, .L41+92
 638 01a4 FFF7FEFF 		bl	_ZN7daisysp10Oscillator7ProcessEv
 639              	.LVL37:
 136:test-daisy-seed.cpp **** 
 640              		.loc 12 136 31 view .LVU145
 641 01a8 7948     		ldr	r0, .L41+96
 134:test-daisy-seed.cpp ****             chord_osc2.Process() +
 642              		.loc 12 134 34 view .LVU146
 643 01aa 39EE009A 		vadd.f32	s18, s18, s0
 136:test-daisy-seed.cpp **** 
 644              		.loc 12 136 31 view .LVU147
 645 01ae FFF7FEFF 		bl	_ZN7daisysp10Oscillator7ProcessEv
 646              	.LVL38:
 138:test-daisy-seed.cpp **** 
 647              		.loc 12 138 39 view .LVU148
 648 01b2 7848     		ldr	r0, .L41+100
 136:test-daisy-seed.cpp **** 
 649              		.loc 12 136 32 view .LVU149
 650 01b4 39EE009A 		vadd.f32	s18, s18, s0
 651              	.LVL39:
 138:test-daisy-seed.cpp **** 
 652              		.loc 12 138 9 is_stmt 1 view .LVU150
 138:test-daisy-seed.cpp **** 
 653              		.loc 12 138 39 is_stmt 0 view .LVU151
 654 01b8 FFF7FEFF 		bl	_ZN7daisysp5AdEnv7ProcessEv
 655              	.LVL40:
 140:test-daisy-seed.cpp ****         float modulated_chord_volume =
 656              		.loc 12 140 43 view .LVU152
 657 01bc 7648     		ldr	r0, .L41+104
 138:test-daisy-seed.cpp **** 
 658              		.loc 12 138 19 view .LVU153
ARM GAS  C:\Users\louis\AppData\Local\Temp\ccZ2fpVL.s 			page 29


 659 01be 29EE009A 		vmul.f32	s18, s18, s0
 660              	.LVL41:
 140:test-daisy-seed.cpp ****         float modulated_chord_volume =
 661              		.loc 12 140 9 is_stmt 1 view .LVU154
 140:test-daisy-seed.cpp ****         float modulated_chord_volume =
 662              		.loc 12 140 43 is_stmt 0 view .LVU155
 663 01c2 FFF7FEFF 		bl	_ZN7daisysp10Oscillator7ProcessEv
 664              	.LVL42:
 141:test-daisy-seed.cpp ****             chord_volume * (1.0f - chord_lfo_depth + lfo_val * chord_lfo_depth);
 665              		.loc 12 141 9 is_stmt 1 view .LVU156
 142:test-daisy-seed.cpp **** 
 666              		.loc 12 142 34 is_stmt 0 view .LVU157
 667 01c6 754B     		ldr	r3, .L41+108
 140:test-daisy-seed.cpp ****         float modulated_chord_volume =
 668              		.loc 12 140 46 view .LVU158
 669 01c8 F7EE007A 		vmov.f32	s15, #1.0e+0
 140:test-daisy-seed.cpp ****         float modulated_chord_volume =
 670              		.loc 12 140 56 view .LVU159
 671 01cc B6EE006A 		vmov.f32	s12, #5.0e-1
 141:test-daisy-seed.cpp ****             chord_volume * (1.0f - chord_lfo_depth + lfo_val * chord_lfo_depth);
 672              		.loc 12 141 15 view .LVU160
 673 01d0 DFED736A 		vldr.32	s13, .L41+112
 142:test-daisy-seed.cpp **** 
 674              		.loc 12 142 34 view .LVU161
 675 01d4 93ED007A 		vldr.32	s14, [r3]
 140:test-daisy-seed.cpp ****         float modulated_chord_volume =
 676              		.loc 12 140 46 view .LVU162
 677 01d8 30EE270A 		vadd.f32	s0, s0, s15
 678              	.LVL43:
 150:test-daisy-seed.cpp ****         kick_osc.SetFreq(kick_pitch);
 679              		.loc 12 150 52 view .LVU163
 680 01dc 5A48     		ldr	r0, .L41+24
 142:test-daisy-seed.cpp **** 
 681              		.loc 12 142 34 view .LVU164
 682 01de 77EEC78A 		vsub.f32	s17, s15, s14
 140:test-daisy-seed.cpp ****         float modulated_chord_volume =
 683              		.loc 12 140 56 view .LVU165
 684 01e2 20EE060A 		vmul.f32	s0, s0, s12
 685              	.LVL44:
 142:test-daisy-seed.cpp **** 
 686              		.loc 12 142 52 view .LVU166
 687 01e6 F0EE687A 		vmov.f32	s15, s17
 688 01ea E7EE007A 		vfma.f32	s15, s14, s0
 689              	.LVL45:
 144:test-daisy-seed.cpp **** 
 690              		.loc 12 144 9 is_stmt 1 view .LVU167
 141:test-daisy-seed.cpp ****             chord_volume * (1.0f - chord_lfo_depth + lfo_val * chord_lfo_depth);
 691              		.loc 12 141 15 is_stmt 0 view .LVU168
 692 01ee 67EEA68A 		vmul.f32	s17, s15, s13
 693              	.LVL46:
 150:test-daisy-seed.cpp ****         kick_osc.SetFreq(kick_pitch);
 694              		.loc 12 150 52 view .LVU169
 695 01f2 FFF7FEFF 		bl	_ZN7daisysp5AdEnv7ProcessEv
 696              	.LVL47:
 150:test-daisy-seed.cpp ****         kick_osc.SetFreq(kick_pitch);
 697              		.loc 12 150 57 view .LVU170
 698 01f6 9FED6B7A 		vldr.32	s14, .L41+116
ARM GAS  C:\Users\louis\AppData\Local\Temp\ccZ2fpVL.s 			page 30


 699 01fa DFED6B7A 		vldr.32	s15, .L41+120
 700              	.LBB305:
 701              	.LBB306:
  25:../../DaisySP//Source/Synthesis/oscillator.h ****     /** Choices for output waveforms, POLYBLEP are appropriately labeled. Others are naive forms.
  26:../../DaisySP//Source/Synthesis/oscillator.h ****     */
  27:../../DaisySP//Source/Synthesis/oscillator.h ****     enum
  28:../../DaisySP//Source/Synthesis/oscillator.h ****     {
  29:../../DaisySP//Source/Synthesis/oscillator.h ****         WAVE_SIN,
  30:../../DaisySP//Source/Synthesis/oscillator.h ****         WAVE_TRI,
  31:../../DaisySP//Source/Synthesis/oscillator.h ****         WAVE_SAW,
  32:../../DaisySP//Source/Synthesis/oscillator.h ****         WAVE_RAMP,
  33:../../DaisySP//Source/Synthesis/oscillator.h ****         WAVE_SQUARE,
  34:../../DaisySP//Source/Synthesis/oscillator.h ****         WAVE_POLYBLEP_TRI,
  35:../../DaisySP//Source/Synthesis/oscillator.h ****         WAVE_POLYBLEP_SAW,
  36:../../DaisySP//Source/Synthesis/oscillator.h ****         WAVE_POLYBLEP_SQUARE,
  37:../../DaisySP//Source/Synthesis/oscillator.h ****         WAVE_LAST,
  38:../../DaisySP//Source/Synthesis/oscillator.h ****     };
  39:../../DaisySP//Source/Synthesis/oscillator.h **** 
  40:../../DaisySP//Source/Synthesis/oscillator.h **** 
  41:../../DaisySP//Source/Synthesis/oscillator.h ****     /** Initializes the Oscillator
  42:../../DaisySP//Source/Synthesis/oscillator.h **** 
  43:../../DaisySP//Source/Synthesis/oscillator.h ****         \param sample_rate - sample rate of the audio engine being run, and the frequency that the 
  44:../../DaisySP//Source/Synthesis/oscillator.h **** 
  45:../../DaisySP//Source/Synthesis/oscillator.h ****         Defaults:
  46:../../DaisySP//Source/Synthesis/oscillator.h ****         - freq_ = 100 Hz
  47:../../DaisySP//Source/Synthesis/oscillator.h ****         - amp_ = 0.5
  48:../../DaisySP//Source/Synthesis/oscillator.h ****         - waveform_ = sine wave.
  49:../../DaisySP//Source/Synthesis/oscillator.h ****     */
  50:../../DaisySP//Source/Synthesis/oscillator.h ****     void Init(float sample_rate)
  51:../../DaisySP//Source/Synthesis/oscillator.h ****     {
  52:../../DaisySP//Source/Synthesis/oscillator.h ****         sr_        = sample_rate;
  53:../../DaisySP//Source/Synthesis/oscillator.h ****         sr_recip_  = 1.0f / sample_rate;
  54:../../DaisySP//Source/Synthesis/oscillator.h ****         freq_      = 100.0f;
  55:../../DaisySP//Source/Synthesis/oscillator.h ****         amp_       = 0.5f;
  56:../../DaisySP//Source/Synthesis/oscillator.h ****         pw_        = 0.5f;
  57:../../DaisySP//Source/Synthesis/oscillator.h ****         phase_     = 0.0f;
  58:../../DaisySP//Source/Synthesis/oscillator.h ****         phase_inc_ = CalcPhaseInc(freq_);
  59:../../DaisySP//Source/Synthesis/oscillator.h ****         waveform_  = WAVE_SIN;
  60:../../DaisySP//Source/Synthesis/oscillator.h ****         eoc_       = true;
  61:../../DaisySP//Source/Synthesis/oscillator.h ****         eor_       = true;
  62:../../DaisySP//Source/Synthesis/oscillator.h ****     }
  63:../../DaisySP//Source/Synthesis/oscillator.h **** 
  64:../../DaisySP//Source/Synthesis/oscillator.h **** 
  65:../../DaisySP//Source/Synthesis/oscillator.h ****     /** Changes the frequency of the Oscillator, and recalculates phase increment.
  66:../../DaisySP//Source/Synthesis/oscillator.h ****     */
  67:../../DaisySP//Source/Synthesis/oscillator.h ****     inline void SetFreq(const float f)
  68:../../DaisySP//Source/Synthesis/oscillator.h ****     {
  69:../../DaisySP//Source/Synthesis/oscillator.h ****         freq_      = f;
 702              		.loc 7 69 20 view .LVU171
 703 01fe 6B4B     		ldr	r3, .L41+124
 704              	.LBE306:
 705              	.LBE305:
 144:test-daisy-seed.cpp **** 
 706              		.loc 12 144 45 view .LVU172
 707 0200 68EE8B8A 		vmul.f32	s17, s17, s22
 708              	.LVL48:
 147:test-daisy-seed.cpp **** 
ARM GAS  C:\Users\louis\AppData\Local\Temp\ccZ2fpVL.s 			page 31


 709              		.loc 12 147 9 is_stmt 1 view .LVU173
 150:test-daisy-seed.cpp ****         kick_osc.SetFreq(kick_pitch);
 710              		.loc 12 150 9 view .LVU174
 150:test-daisy-seed.cpp ****         kick_osc.SetFreq(kick_pitch);
 711              		.loc 12 150 57 is_stmt 0 view .LVU175
 712 0204 E0EE077A 		vfma.f32	s15, s0, s14
 713              	.LVL49:
 151:test-daisy-seed.cpp ****         drums += kick_osc.Process() * kick_env.Process();
 714              		.loc 12 151 9 is_stmt 1 view .LVU176
 715              	.LBB309:
 716              	.LBI305:
  67:../../DaisySP//Source/Synthesis/oscillator.h ****     {
 717              		.loc 7 67 17 view .LVU177
 718              	.LBB307:
 719              		.loc 7 69 9 view .LVU178
 720              		.loc 7 69 20 is_stmt 0 view .LVU179
 721 0208 1F46     		mov	r7, r3
  70:../../DaisySP//Source/Synthesis/oscillator.h ****         phase_inc_ = CalcPhaseInc(f);
 722              		.loc 7 70 34 view .LVU180
 723 020a 1846     		mov	r0, r3
 724 020c B0EE670A 		vmov.f32	s0, s15
  69:../../DaisySP//Source/Synthesis/oscillator.h ****         phase_inc_ = CalcPhaseInc(f);
 725              		.loc 7 69 20 view .LVU181
 726 0210 C3ED027A 		vstr.32	s15, [r3, #8]
 727              		.loc 7 70 9 is_stmt 1 view .LVU182
 728              		.loc 7 70 34 is_stmt 0 view .LVU183
 729 0214 FFF7FEFF 		bl	_ZN7daisysp10Oscillator12CalcPhaseIncEf
 730              	.LVL50:
 731              		.loc 7 70 34 view .LVU184
 732              	.LBE307:
 733              	.LBE309:
 152:test-daisy-seed.cpp **** 
 734              		.loc 12 152 34 view .LVU185
 735 0218 3846     		mov	r0, r7
 736              	.LBB310:
 737              	.LBB308:
 738              		.loc 7 70 20 view .LVU186
 739 021a 87ED070A 		vstr.32	s0, [r7, #28]
 740              	.LVL51:
 741              		.loc 7 70 20 view .LVU187
 742              	.LBE308:
 743              	.LBE310:
 152:test-daisy-seed.cpp **** 
 744              		.loc 12 152 9 is_stmt 1 view .LVU188
 152:test-daisy-seed.cpp **** 
 745              		.loc 12 152 34 is_stmt 0 view .LVU189
 746 021e FFF7FEFF 		bl	_ZN7daisysp10Oscillator7ProcessEv
 747              	.LVL52:
 152:test-daisy-seed.cpp **** 
 748              		.loc 12 152 55 view .LVU190
 749 0222 4948     		ldr	r0, .L41+24
 152:test-daisy-seed.cpp **** 
 750              		.loc 12 152 34 view .LVU191
 751 0224 B0EE40AA 		vmov.f32	s20, s0
 152:test-daisy-seed.cpp **** 
 752              		.loc 12 152 55 view .LVU192
 753 0228 FFF7FEFF 		bl	_ZN7daisysp5AdEnv7ProcessEv
ARM GAS  C:\Users\louis\AppData\Local\Temp\ccZ2fpVL.s 			page 32


 754              	.LVL53:
 755              	.LBB311:
 756              	.LBB312:
  25:../../DaisySP//Source/Noise/whitenoise.h ****     /** Initializes the WhiteNoise object
  26:../../DaisySP//Source/Noise/whitenoise.h ****     */
  27:../../DaisySP//Source/Noise/whitenoise.h ****     void Init()
  28:../../DaisySP//Source/Noise/whitenoise.h ****     {
  29:../../DaisySP//Source/Noise/whitenoise.h ****         amp_      = 1.0f;
  30:../../DaisySP//Source/Noise/whitenoise.h ****         randseed_ = 1;
  31:../../DaisySP//Source/Noise/whitenoise.h ****     }
  32:../../DaisySP//Source/Noise/whitenoise.h **** 
  33:../../DaisySP//Source/Noise/whitenoise.h ****     /** sets the amplitude of the noise output
  34:../../DaisySP//Source/Noise/whitenoise.h ****     */
  35:../../DaisySP//Source/Noise/whitenoise.h ****     inline void SetAmp(float a) { amp_ = a; }
  36:../../DaisySP//Source/Noise/whitenoise.h ****     /** returns a new sample of noise in the range of -amp_ to amp_
  37:../../DaisySP//Source/Noise/whitenoise.h ****     */
  38:../../DaisySP//Source/Noise/whitenoise.h ****     inline float Process()
  39:../../DaisySP//Source/Noise/whitenoise.h ****     {
  40:../../DaisySP//Source/Noise/whitenoise.h ****         randseed_ *= 16807;
 757              		.loc 10 40 19 view .LVU193
 758 022c 7368     		ldr	r3, [r6, #4]
 759 022e 44F2A712 		movw	r2, #16807
  41:../../DaisySP//Source/Noise/whitenoise.h ****         return (randseed_ * coeff_) * amp_;
 760              		.loc 10 41 39 view .LVU194
 761 0232 D6ED007A 		vldr.32	s15, [r6]
 762              	.LBE312:
 763              	.LBE311:
 152:test-daisy-seed.cpp **** 
 764              		.loc 12 152 15 view .LVU195
 765 0236 EAEE009A 		vfma.f32	s19, s20, s0
 766              	.LVL54:
 155:test-daisy-seed.cpp ****         hihat_filter.Process(hh);
 767              		.loc 12 155 9 is_stmt 1 view .LVU196
 768              	.LBB315:
 769              	.LBI311:
  38:../../DaisySP//Source/Noise/whitenoise.h ****     {
 770              		.loc 10 38 18 view .LVU197
 771              	.LBB313:
  40:../../DaisySP//Source/Noise/whitenoise.h ****         return (randseed_ * coeff_) * amp_;
 772              		.loc 10 40 9 view .LVU198
 773              	.LBE313:
 774              	.LBE315:
 156:test-daisy-seed.cpp ****         hh = hihat_filter.High();
 775              		.loc 12 156 29 is_stmt 0 view .LVU199
 776 023a 5D48     		ldr	r0, .L41+128
 777              	.LBB316:
 778              	.LBB314:
  40:../../DaisySP//Source/Noise/whitenoise.h ****         return (randseed_ * coeff_) * amp_;
 779              		.loc 10 40 19 view .LVU200
 780 023c 02FB03F3 		mul	r3, r2, r3
 781              		.loc 10 41 27 view .LVU201
 782 0240 00EE103A 		vmov	s0, r3	@ int
  40:../../DaisySP//Source/Noise/whitenoise.h ****         return (randseed_ * coeff_) * amp_;
 783              		.loc 10 40 19 view .LVU202
 784 0244 7360     		str	r3, [r6, #4]
 785              		.loc 10 41 27 view .LVU203
 786 0246 BAEEE00A 		vcvt.f32.s32	s0, s0, #31
ARM GAS  C:\Users\louis\AppData\Local\Temp\ccZ2fpVL.s 			page 33


 787              		.loc 10 41 9 is_stmt 1 view .LVU204
 788              	.LVL55:
 789              		.loc 10 41 9 is_stmt 0 view .LVU205
 790              	.LBE314:
 791              	.LBE316:
 156:test-daisy-seed.cpp ****         hh = hihat_filter.High();
 792              		.loc 12 156 9 is_stmt 1 view .LVU206
 156:test-daisy-seed.cpp ****         hh = hihat_filter.High();
 793              		.loc 12 156 29 is_stmt 0 view .LVU207
 794 024a 20EE270A 		vmul.f32	s0, s0, s15
 795 024e FFF7FEFF 		bl	_ZN7daisysp3Svf7ProcessEf
 796              	.LVL56:
 157:test-daisy-seed.cpp ****         drums += hh * hihat_env.Process() * 0.3f;
 797              		.loc 12 157 9 is_stmt 1 view .LVU208
 798              	.LBB317:
 799              	.LBI317:
  61:../../DaisySP//Source/Filters/svf.h ****     /** highpass output
  62:../../DaisySP//Source/Filters/svf.h ****         \return high pass output of the filter
  63:../../DaisySP//Source/Filters/svf.h ****     */
  64:../../DaisySP//Source/Filters/svf.h ****     inline float High() { return out_high_; }
 800              		.loc 8 64 18 view .LVU209
 801              	.LBB318:
 802              		.loc 8 64 27 view .LVU210
 803              		.loc 8 64 34 is_stmt 0 view .LVU211
 804 0252 574B     		ldr	r3, .L41+128
 805              	.LBE318:
 806              	.LBE317:
 158:test-daisy-seed.cpp **** 
 807              		.loc 12 158 40 view .LVU212
 808 0254 3B48     		ldr	r0, .L41+20
 809              	.LBB320:
 810              	.LBB319:
 811              		.loc 8 64 34 view .LVU213
 812 0256 93ED0DAA 		vldr.32	s20, [r3, #52]
 813              	.LVL57:
 814              		.loc 8 64 34 view .LVU214
 815              	.LBE319:
 816              	.LBE320:
 158:test-daisy-seed.cpp **** 
 817              		.loc 12 158 9 is_stmt 1 view .LVU215
 158:test-daisy-seed.cpp **** 
 818              		.loc 12 158 40 is_stmt 0 view .LVU216
 819 025a FFF7FEFF 		bl	_ZN7daisysp5AdEnv7ProcessEv
 820              	.LVL58:
 158:test-daisy-seed.cpp **** 
 821              		.loc 12 158 15 view .LVU217
 822 025e DFED556A 		vldr.32	s13, .L41+132
 163:test-daisy-seed.cpp ****         sig = lp_filter.Process(sig);
 823              		.loc 12 163 28 view .LVU218
 824 0262 A8EE898A 		vfma.f32	s16, s17, s18
 825              	.LVL59:
 158:test-daisy-seed.cpp **** 
 826              		.loc 12 158 21 view .LVU219
 827 0266 20EE0A0A 		vmul.f32	s0, s0, s20
 163:test-daisy-seed.cpp ****         sig = lp_filter.Process(sig);
 828              		.loc 12 163 15 view .LVU220
 829 026a 9FED536A 		vldr.32	s12, .L41+136
ARM GAS  C:\Users\louis\AppData\Local\Temp\ccZ2fpVL.s 			page 34


 830              	.LBB321:
 831              	.LBB322:
  31:../../DaisySP//Source/Filters/onepole.h **** 
  32:../../DaisySP//Source/Filters/onepole.h ****     /**
  33:../../DaisySP//Source/Filters/onepole.h ****      * @brief Operational modes of the filter
  34:../../DaisySP//Source/Filters/onepole.h ****      * - LOW_PASS = cuts out high frequency sound, lets low frequency sound pass through
  35:../../DaisySP//Source/Filters/onepole.h ****      * - HIGH_PASS = cuts out low frequency sound, lets high frequency sound pass through
  36:../../DaisySP//Source/Filters/onepole.h ****      */
  37:../../DaisySP//Source/Filters/onepole.h ****     enum FilterMode
  38:../../DaisySP//Source/Filters/onepole.h ****     {
  39:../../DaisySP//Source/Filters/onepole.h ****         FILTER_MODE_LOW_PASS,
  40:../../DaisySP//Source/Filters/onepole.h ****         FILTER_MODE_HIGH_PASS
  41:../../DaisySP//Source/Filters/onepole.h ****     };
  42:../../DaisySP//Source/Filters/onepole.h **** 
  43:../../DaisySP//Source/Filters/onepole.h ****     /** Initializes the module */
  44:../../DaisySP//Source/Filters/onepole.h ****     void Init()
  45:../../DaisySP//Source/Filters/onepole.h ****     {
  46:../../DaisySP//Source/Filters/onepole.h ****         Reset();
  47:../../DaisySP//Source/Filters/onepole.h ****         mode_ = FILTER_MODE_LOW_PASS;
  48:../../DaisySP//Source/Filters/onepole.h ****     }
  49:../../DaisySP//Source/Filters/onepole.h **** 
  50:../../DaisySP//Source/Filters/onepole.h ****     /** Reset the module to its default state */
  51:../../DaisySP//Source/Filters/onepole.h ****     inline void Reset() { state_ = 0.0f; }
  52:../../DaisySP//Source/Filters/onepole.h **** 
  53:../../DaisySP//Source/Filters/onepole.h ****     /** Set the filter cutoff frequency
  54:../../DaisySP//Source/Filters/onepole.h ****     *   \param freq Cutoff frequency. Valid range from 0 to .497f
  55:../../DaisySP//Source/Filters/onepole.h ****     */
  56:../../DaisySP//Source/Filters/onepole.h ****     inline void SetFrequency(float freq)
  57:../../DaisySP//Source/Filters/onepole.h ****     {
  58:../../DaisySP//Source/Filters/onepole.h ****         // Clip coefficient to about 100.
  59:../../DaisySP//Source/Filters/onepole.h ****         freq = freq < 0.497f ? freq : 0.497f;
  60:../../DaisySP//Source/Filters/onepole.h **** 
  61:../../DaisySP//Source/Filters/onepole.h ****         g_  = tanf(PI_F * freq);
  62:../../DaisySP//Source/Filters/onepole.h ****         gi_ = 1.f / (1.f + g_);
  63:../../DaisySP//Source/Filters/onepole.h ****     }
  64:../../DaisySP//Source/Filters/onepole.h **** 
  65:../../DaisySP//Source/Filters/onepole.h ****     /** Set the filter mode
  66:../../DaisySP//Source/Filters/onepole.h ****     *   \param mode Filter mode. Can be lowpass or highpass
  67:../../DaisySP//Source/Filters/onepole.h ****     */
  68:../../DaisySP//Source/Filters/onepole.h ****     inline void SetFilterMode(FilterMode mode) { mode_ = mode; }
  69:../../DaisySP//Source/Filters/onepole.h **** 
  70:../../DaisySP//Source/Filters/onepole.h ****     /** Process audio through the filter
  71:../../DaisySP//Source/Filters/onepole.h ****     *   \param in The next sample to be processed
  72:../../DaisySP//Source/Filters/onepole.h ****     */
  73:../../DaisySP//Source/Filters/onepole.h ****     inline float Process(float in)
  74:../../DaisySP//Source/Filters/onepole.h ****     {
  75:../../DaisySP//Source/Filters/onepole.h ****         float lp;
  76:../../DaisySP//Source/Filters/onepole.h ****         lp     = (g_ * in + state_) * gi_;
 832              		.loc 9 76 19 view .LVU221
 833 026e 9AED007A 		vldr.32	s14, [r10]
 834              		.loc 9 76 27 view .LVU222
 835 0272 DAED027A 		vldr.32	s15, [r10, #8]
 836              	.LBE322:
 837              	.LBE321:
 158:test-daisy-seed.cpp **** 
 838              		.loc 12 158 15 view .LVU223
 839 0276 E0EE269A 		vfma.f32	s19, s0, s13
ARM GAS  C:\Users\louis\AppData\Local\Temp\ccZ2fpVL.s 			page 35


 840              	.LVL60:
 160:test-daisy-seed.cpp **** 
 841              		.loc 12 160 9 is_stmt 1 view .LVU224
 163:test-daisy-seed.cpp ****         sig = lp_filter.Process(sig);
 842              		.loc 12 163 9 view .LVU225
 843              	.LBB325:
 844              	.LBB323:
 845              		.loc 9 76 16 is_stmt 0 view .LVU226
 846 027a DAED016A 		vldr.32	s13, [r10, #4]
  77:../../DaisySP//Source/Filters/onepole.h ****         state_ = g_ * (in - lp) + lp;
  78:../../DaisySP//Source/Filters/onepole.h **** 
  79:../../DaisySP//Source/Filters/onepole.h ****         switch(mode_)
 847              		.loc 9 79 16 view .LVU227
 848 027e 9AF80C30 		ldrb	r3, [r10, #12]	@ zero_extendqisi2
 849              	.LBE323:
 850              	.LBE325:
 163:test-daisy-seed.cpp ****         sig = lp_filter.Process(sig);
 851              		.loc 12 163 15 view .LVU228
 852 0282 A9EE868A 		vfma.f32	s16, s19, s12
 853              	.LVL61:
 164:test-daisy-seed.cpp **** 
 854              		.loc 12 164 9 is_stmt 1 view .LVU229
 855              	.LBB326:
 856              	.LBI321:
  73:../../DaisySP//Source/Filters/onepole.h ****     {
 857              		.loc 9 73 18 view .LVU230
 858              	.LBB324:
  75:../../DaisySP//Source/Filters/onepole.h ****         lp     = (g_ * in + state_) * gi_;
 859              		.loc 9 75 9 view .LVU231
  76:../../DaisySP//Source/Filters/onepole.h ****         state_ = g_ * (in - lp) + lp;
 860              		.loc 9 76 9 view .LVU232
  76:../../DaisySP//Source/Filters/onepole.h ****         state_ = g_ * (in - lp) + lp;
 861              		.loc 9 76 27 is_stmt 0 view .LVU233
 862 0286 E8EE077A 		vfma.f32	s15, s16, s14
  76:../../DaisySP//Source/Filters/onepole.h ****         state_ = g_ * (in - lp) + lp;
 863              		.loc 9 76 16 view .LVU234
 864 028a 67EEA67A 		vmul.f32	s15, s15, s13
 865              	.LVL62:
  77:../../DaisySP//Source/Filters/onepole.h **** 
 866              		.loc 9 77 9 is_stmt 1 view .LVU235
  77:../../DaisySP//Source/Filters/onepole.h **** 
 867              		.loc 9 77 27 is_stmt 0 view .LVU236
 868 028e 38EE678A 		vsub.f32	s16, s16, s15
 869              	.LVL63:
  77:../../DaisySP//Source/Filters/onepole.h **** 
 870              		.loc 9 77 33 view .LVU237
 871 0292 F0EE676A 		vmov.f32	s13, s15
 872 0296 E7EE086A 		vfma.f32	s13, s14, s16
  77:../../DaisySP//Source/Filters/onepole.h **** 
 873              		.loc 9 77 16 view .LVU238
 874 029a CAED026A 		vstr.32	s13, [r10, #8]
 875              		.loc 9 79 9 is_stmt 1 view .LVU239
 876 029e 13B1     		cbz	r3, .L16
 877 02a0 012B     		cmp	r3, #1
 878 02a2 48FE2A7A 		vseleq.f32	s15, s16, s21
 879              	.LVL64:
 880              	.L16:
ARM GAS  C:\Users\louis\AppData\Local\Temp\ccZ2fpVL.s 			page 36


 881              		.loc 9 79 9 is_stmt 0 view .LVU240
 882              	.LBE324:
 883              	.LBE326:
 166:test-daisy-seed.cpp ****         out[i + 1] = sig;
 884              		.loc 12 166 9 is_stmt 1 view .LVU241
 170:test-daisy-seed.cpp ****         if(note_counter >= samples_per_note)
 885              		.loc 12 170 21 is_stmt 0 view .LVU242
 886 02a6 D9F80030 		ldr	r3, [r9]
 887              	.LBB327:
 171:test-daisy-seed.cpp ****         {
 888              		.loc 12 171 9 view .LVU243
 889 02aa 444A     		ldr	r2, .L41+140
 890              	.LBE327:
 170:test-daisy-seed.cpp ****         if(note_counter >= samples_per_note)
 891              		.loc 12 170 21 view .LVU244
 892 02ac 0133     		adds	r3, r3, #1
 166:test-daisy-seed.cpp ****         out[i + 1] = sig;
 893              		.loc 12 166 20 view .LVU245
 894 02ae C5ED007A 		vstr.32	s15, [r5]
 167:test-daisy-seed.cpp **** 
 895              		.loc 12 167 9 is_stmt 1 view .LVU246
 896              	.LBB343:
 171:test-daisy-seed.cpp ****         {
 897              		.loc 12 171 9 is_stmt 0 view .LVU247
 898 02b2 1268     		ldr	r2, [r2]
 899              	.LBE343:
 167:test-daisy-seed.cpp **** 
 900              		.loc 12 167 20 view .LVU248
 901 02b4 C5ED017A 		vstr.32	s15, [r5, #4]
 170:test-daisy-seed.cpp ****         if(note_counter >= samples_per_note)
 902              		.loc 12 170 9 is_stmt 1 view .LVU249
 903              	.LBB344:
 171:test-daisy-seed.cpp ****         {
 904              		.loc 12 171 9 is_stmt 0 view .LVU250
 905 02b8 9342     		cmp	r3, r2
 906              	.LBE344:
 170:test-daisy-seed.cpp ****         if(note_counter >= samples_per_note)
 907              		.loc 12 170 21 view .LVU251
 908 02ba C9F80030 		str	r3, [r9]
 171:test-daisy-seed.cpp ****         {
 909              		.loc 12 171 9 is_stmt 1 view .LVU252
 910              	.LBB345:
 911 02be FFF4B6AE 		bcc	.L18
 912              	.LBB328:
 173:test-daisy-seed.cpp ****             if(rand() % 100 < 70)
 913              		.loc 12 173 13 view .LVU253
 173:test-daisy-seed.cpp ****             if(rand() % 100 < 70)
 914              		.loc 12 173 26 is_stmt 0 view .LVU254
 915 02c2 0023     		movs	r3, #0
 916 02c4 C9F80030 		str	r3, [r9]
 174:test-daisy-seed.cpp ****             {
 917              		.loc 12 174 13 is_stmt 1 view .LVU255
 918              	.LBB329:
 174:test-daisy-seed.cpp ****             {
 919              		.loc 12 174 20 is_stmt 0 view .LVU256
 920 02c8 FFF7FEFF 		bl	rand
 921              	.LVL65:
ARM GAS  C:\Users\louis\AppData\Local\Temp\ccZ2fpVL.s 			page 37


 174:test-daisy-seed.cpp ****             {
 922              		.loc 12 174 23 view .LVU257
 923 02cc 3C4A     		ldr	r2, .L41+144
 924 02ce 82FB0032 		smull	r3, r2, r2, r0
 925 02d2 C317     		asrs	r3, r0, #31
 926 02d4 C3EB6213 		rsb	r3, r3, r2, asr #5
 927 02d8 6422     		movs	r2, #100
 928 02da 02FB1300 		mls	r0, r2, r3, r0
 174:test-daisy-seed.cpp ****             {
 929              		.loc 12 174 13 view .LVU258
 930 02de 4528     		cmp	r0, #69
 931 02e0 3FF7A5AE 		bgt	.L18
 932              	.LBB330:
 176:test-daisy-seed.cpp ****                 osc.SetFreq(c.notes[rand() % c.size] * 2.0f);
 933              		.loc 12 176 17 is_stmt 1 view .LVU259
 176:test-daisy-seed.cpp ****                 osc.SetFreq(c.notes[rand() % c.size] * 2.0f);
 934              		.loc 12 176 48 is_stmt 0 view .LVU260
 935 02e4 374B     		ldr	r3, .L41+148
 936              	.LBB331:
 937              	.LBB332:
  69:../../DaisySP//Source/Synthesis/oscillator.h ****         phase_inc_ = CalcPhaseInc(f);
 938              		.loc 7 69 20 view .LVU261
 939 02e6 DFF864B0 		ldr	fp, .L41+28
 940              	.LBE332:
 941              	.LBE331:
 176:test-daisy-seed.cpp ****                 osc.SetFreq(c.notes[rand() % c.size] * 2.0f);
 942              		.loc 12 176 48 view .LVU262
 943 02ea 1968     		ldr	r1, [r3]
 944 02ec 0391     		str	r1, [sp, #12]
 945              	.LVL66:
 177:test-daisy-seed.cpp ****                 env.Trigger();
 946              		.loc 12 177 17 is_stmt 1 view .LVU263
 177:test-daisy-seed.cpp ****                 env.Trigger();
 947              		.loc 12 177 41 is_stmt 0 view .LVU264
 948 02ee FFF7FEFF 		bl	rand
 949              	.LVL67:
 177:test-daisy-seed.cpp ****                 env.Trigger();
 950              		.loc 12 177 52 view .LVU265
 951 02f2 354A     		ldr	r2, .L41+152
 177:test-daisy-seed.cpp ****                 env.Trigger();
 952              		.loc 12 177 41 view .LVU266
 953 02f4 0346     		mov	r3, r0
 177:test-daisy-seed.cpp ****                 env.Trigger();
 954              		.loc 12 177 48 view .LVU267
 955 02f6 0399     		ldr	r1, [sp, #12]
 956 02f8 02EB0110 		add	r0, r2, r1, lsl #4
 177:test-daisy-seed.cpp ****                 env.Trigger();
 957              		.loc 12 177 44 view .LVU268
 958 02fc D0F80CC0 		ldr	ip, [r0, #12]
 959              	.LBB336:
 960              	.LBB333:
 961              		.loc 7 70 34 view .LVU269
 962 0300 5846     		mov	r0, fp
 963              	.LBE333:
 964              	.LBE336:
 177:test-daisy-seed.cpp ****                 env.Trigger();
 965              		.loc 12 177 44 view .LVU270
ARM GAS  C:\Users\louis\AppData\Local\Temp\ccZ2fpVL.s 			page 38


 966 0302 93FBFCFE 		sdiv	lr, r3, ip
 967 0306 0EFB1C33 		mls	r3, lr, ip, r3
 177:test-daisy-seed.cpp ****                 env.Trigger();
 968              		.loc 12 177 52 view .LVU271
 969 030a 03EB8101 		add	r1, r3, r1, lsl #2
 970 030e 02EB8101 		add	r1, r2, r1, lsl #2
 177:test-daisy-seed.cpp ****                 env.Trigger();
 971              		.loc 12 177 28 view .LVU272
 972 0312 91ED000A 		vldr.32	s0, [r1]
 973 0316 30EE000A 		vadd.f32	s0, s0, s0
 974              	.LVL68:
 975              	.LBB337:
 976              	.LBI331:
  67:../../DaisySP//Source/Synthesis/oscillator.h ****     {
 977              		.loc 7 67 17 is_stmt 1 view .LVU273
 978              	.LBB334:
  69:../../DaisySP//Source/Synthesis/oscillator.h ****         phase_inc_ = CalcPhaseInc(f);
 979              		.loc 7 69 9 view .LVU274
  69:../../DaisySP//Source/Synthesis/oscillator.h ****         phase_inc_ = CalcPhaseInc(f);
 980              		.loc 7 69 20 is_stmt 0 view .LVU275
 981 031a 8BED020A 		vstr.32	s0, [fp, #8]
 982              		.loc 7 70 9 is_stmt 1 view .LVU276
 983              		.loc 7 70 34 is_stmt 0 view .LVU277
 984 031e FFF7FEFF 		bl	_ZN7daisysp10Oscillator12CalcPhaseIncEf
 985              	.LVL69:
 986              		.loc 7 70 34 view .LVU278
 987              	.LBE334:
 988              	.LBE337:
 989              	.LBB338:
 990              	.LBB339:
 991              		.loc 6 64 38 view .LVU279
 992 0322 0B4B     		ldr	r3, .L41+32
 993 0324 0122     		movs	r2, #1
 994              	.LBE339:
 995              	.LBE338:
 996              	.LBB341:
 997              	.LBB335:
 998              		.loc 7 70 20 view .LVU280
 999 0326 8BED070A 		vstr.32	s0, [fp, #28]
 1000              	.LVL70:
 1001              		.loc 7 70 20 view .LVU281
 1002              	.LBE335:
 1003              	.LBE341:
 178:test-daisy-seed.cpp ****             }
 1004              		.loc 12 178 17 is_stmt 1 view .LVU282
 1005              	.LBB342:
 1006              	.LBI338:
 1007              		.loc 6 64 17 view .LVU283
 1008              	.LBB340:
 1009              		.loc 6 64 29 view .LVU284
 1010              		.loc 6 64 38 is_stmt 0 view .LVU285
 1011 032a 83F83420 		strb	r2, [r3, #52]
 1012              		.loc 6 64 43 view .LVU286
 1013 032e 7EE6     		b	.L18
 1014              	.L42:
 1015              		.align	2
 1016              	.L41:
ARM GAS  C:\Users\louis\AppData\Local\Temp\ccZ2fpVL.s 			page 39


 1017 0330 00000000 		.word	delay_line
 1018 0334 00000000 		.word	.LANCHOR16
 1019 0338 00000000 		.word	.LANCHOR25
 1020 033c 00000000 		.word	.LANCHOR26
 1021 0340 00000000 		.word	.LANCHOR27
 1022 0344 00000000 		.word	.LANCHOR18
 1023 0348 00000000 		.word	.LANCHOR14
 1024 034c 00000000 		.word	.LANCHOR0
 1025 0350 00000000 		.word	.LANCHOR1
 1026 0354 00000000 		.word	.LANCHOR2
 1027 0358 00001644 		.word	1142292480
 1028 035c 00004844 		.word	1145569280
 1029 0360 00000000 		.word	.LANCHOR3
 1030 0364 00000000 		.word	0
 1031 0368 00000000 		.word	.LANCHOR5
 1032 036c F1197605 		.word	91625969
 1033 0370 00000000 		.word	.LANCHOR4
 1034 0374 CDCC4C3D 		.word	1028443341
 1035 0378 00000000 		.word	.LANCHOR6
 1036 037c 00000000 		.word	.LANCHOR7
 1037 0380 00000000 		.word	.LANCHOR8
 1038 0384 0AD7233C 		.word	1008981770
 1039 0388 6F12033A 		.word	973279855
 1040 038c 00000000 		.word	.LANCHOR9
 1041 0390 00000000 		.word	.LANCHOR10
 1042 0394 00000000 		.word	.LANCHOR11
 1043 0398 00000000 		.word	.LANCHOR12
 1044 039c 00000000 		.word	.LANCHOR13
 1045 03a0 EC51383D 		.word	1027101164
 1046 03a4 0000B442 		.word	1119092736
 1047 03a8 00004842 		.word	1112014848
 1048 03ac 00000000 		.word	.LANCHOR15
 1049 03b0 00000000 		.word	.LANCHOR17
 1050 03b4 9A99993E 		.word	1050253722
 1051 03b8 9A99193F 		.word	1058642330
 1052 03bc 00000000 		.word	.LANCHOR21
 1053 03c0 1F85EB51 		.word	1374389535
 1054 03c4 00000000 		.word	.LANCHOR22
 1055 03c8 00000000 		.word	.LANCHOR23
 1056 03cc 00000000 		.word	.LANCHOR19
 1057 03d0 00000000 		.word	.LANCHOR20
 1058 03d4 00000000 		.word	.LANCHOR24
 1059              	.LVL71:
 1060              	.L39:
 1061              		.loc 6 64 43 view .LVU287
 1062              	.LBE340:
 1063              	.LBE342:
 1064              	.LBE330:
 1065              	.LBE329:
 1066              	.LBE328:
 1067              	.LBE345:
 186:test-daisy-seed.cpp ****             current_chord = rand() % chord_count;
 1068              		.loc 12 186 13 is_stmt 1 view .LVU288
 186:test-daisy-seed.cpp ****             current_chord = rand() % chord_count;
 1069              		.loc 12 186 27 is_stmt 0 view .LVU289
 1070 03d8 0023     		movs	r3, #0
 189:test-daisy-seed.cpp ****             chord_osc2.SetFreq(chords[current_chord].notes[1] * 1.005f);
ARM GAS  C:\Users\louis\AppData\Local\Temp\ccZ2fpVL.s 			page 40


 1071              		.loc 12 189 31 view .LVU290
 1072 03da DFF8B4B0 		ldr	fp, .L43+28
 186:test-daisy-seed.cpp ****             current_chord = rand() % chord_count;
 1073              		.loc 12 186 27 view .LVU291
 1074 03de C8F80030 		str	r3, [r8]
 187:test-daisy-seed.cpp **** 
 1075              		.loc 12 187 13 is_stmt 1 view .LVU292
 187:test-daisy-seed.cpp **** 
 1076              		.loc 12 187 33 is_stmt 0 view .LVU293
 1077 03e2 FFF7FEFF 		bl	rand
 1078              	.LVL72:
 189:test-daisy-seed.cpp ****             chord_osc2.SetFreq(chords[current_chord].notes[1] * 1.005f);
 1079              		.loc 12 189 13 is_stmt 1 view .LVU294
 187:test-daisy-seed.cpp **** 
 1080              		.loc 12 187 36 is_stmt 0 view .LVU295
 1081 03e6 234B     		ldr	r3, .L43
 1082 03e8 83FB0023 		smull	r2, r3, r3, r0
 187:test-daisy-seed.cpp **** 
 1083              		.loc 12 187 27 view .LVU296
 1084 03ec 224A     		ldr	r2, .L43+4
 187:test-daisy-seed.cpp **** 
 1085              		.loc 12 187 36 view .LVU297
 1086 03ee A3EBE073 		sub	r3, r3, r0, asr #31
 1087 03f2 03EB4303 		add	r3, r3, r3, lsl #1
 1088 03f6 C31A     		subs	r3, r0, r3
 1089              	.LBB346:
 1090              	.LBB347:
  69:../../DaisySP//Source/Synthesis/oscillator.h ****         phase_inc_ = CalcPhaseInc(f);
 1091              		.loc 7 69 20 view .LVU298
 1092 03f8 2048     		ldr	r0, .L43+8
 1093              	.LBE347:
 1094              	.LBE346:
 187:test-daisy-seed.cpp **** 
 1095              		.loc 12 187 27 view .LVU299
 1096 03fa 1360     		str	r3, [r2]
 189:test-daisy-seed.cpp ****             chord_osc2.SetFreq(chords[current_chord].notes[1] * 1.005f);
 1097              		.loc 12 189 31 view .LVU300
 1098 03fc 0BEB0313 		add	r3, fp, r3, lsl #4
 1099 0400 93ED000A 		vldr.32	s0, [r3]
 1100              	.LVL73:
 1101              	.LBB351:
 1102              	.LBI346:
  67:../../DaisySP//Source/Synthesis/oscillator.h ****     {
 1103              		.loc 7 67 17 is_stmt 1 view .LVU301
 1104              	.LBB348:
  69:../../DaisySP//Source/Synthesis/oscillator.h ****         phase_inc_ = CalcPhaseInc(f);
 1105              		.loc 7 69 9 view .LVU302
  69:../../DaisySP//Source/Synthesis/oscillator.h ****         phase_inc_ = CalcPhaseInc(f);
 1106              		.loc 7 69 20 is_stmt 0 view .LVU303
 1107 0404 80ED020A 		vstr.32	s0, [r0, #8]
 1108              		.loc 7 70 9 is_stmt 1 view .LVU304
 1109              		.loc 7 70 34 is_stmt 0 view .LVU305
 1110 0408 FFF7FEFF 		bl	_ZN7daisysp10Oscillator12CalcPhaseIncEf
 1111              	.LVL74:
 1112              		.loc 7 70 34 view .LVU306
 1113              	.LBE348:
 1114              	.LBE351:
ARM GAS  C:\Users\louis\AppData\Local\Temp\ccZ2fpVL.s 			page 41


 190:test-daisy-seed.cpp ****             chord_osc3.SetFreq(chords[current_chord].notes[2] * 0.995f);
 1115              		.loc 12 190 61 view .LVU307
 1116 040c 1A4A     		ldr	r2, .L43+4
 1117              	.LBB352:
 1118              	.LBB349:
 1119              		.loc 7 70 20 view .LVU308
 1120 040e 1B48     		ldr	r0, .L43+8
 1121              	.LBE349:
 1122              	.LBE352:
 190:test-daisy-seed.cpp ****             chord_osc3.SetFreq(chords[current_chord].notes[2] * 0.995f);
 1123              		.loc 12 190 61 view .LVU309
 1124 0410 1368     		ldr	r3, [r2]
 190:test-daisy-seed.cpp ****             chord_osc3.SetFreq(chords[current_chord].notes[2] * 0.995f);
 1125              		.loc 12 190 31 view .LVU310
 1126 0412 DFED1B7A 		vldr.32	s15, .L43+12
 190:test-daisy-seed.cpp ****             chord_osc3.SetFreq(chords[current_chord].notes[2] * 0.995f);
 1127              		.loc 12 190 61 view .LVU311
 1128 0416 0BEB0313 		add	r3, fp, r3, lsl #4
 1129              	.LBB353:
 1130              	.LBB350:
 1131              		.loc 7 70 20 view .LVU312
 1132 041a 80ED070A 		vstr.32	s0, [r0, #28]
 1133              	.LVL75:
 1134              		.loc 7 70 20 view .LVU313
 1135              	.LBE350:
 1136              	.LBE353:
 190:test-daisy-seed.cpp ****             chord_osc3.SetFreq(chords[current_chord].notes[2] * 0.995f);
 1137              		.loc 12 190 13 is_stmt 1 view .LVU314
 1138              	.LBB354:
 1139              	.LBB355:
  69:../../DaisySP//Source/Synthesis/oscillator.h ****         phase_inc_ = CalcPhaseInc(f);
 1140              		.loc 7 69 20 is_stmt 0 view .LVU315
 1141 041e 1948     		ldr	r0, .L43+16
 1142              	.LBE355:
 1143              	.LBE354:
 190:test-daisy-seed.cpp ****             chord_osc3.SetFreq(chords[current_chord].notes[2] * 0.995f);
 1144              		.loc 12 190 31 view .LVU316
 1145 0420 93ED010A 		vldr.32	s0, [r3, #4]
 1146 0424 20EE270A 		vmul.f32	s0, s0, s15
 1147              	.LVL76:
 1148              	.LBB359:
 1149              	.LBI354:
  67:../../DaisySP//Source/Synthesis/oscillator.h ****     {
 1150              		.loc 7 67 17 is_stmt 1 view .LVU317
 1151              	.LBB356:
  69:../../DaisySP//Source/Synthesis/oscillator.h ****         phase_inc_ = CalcPhaseInc(f);
 1152              		.loc 7 69 9 view .LVU318
  69:../../DaisySP//Source/Synthesis/oscillator.h ****         phase_inc_ = CalcPhaseInc(f);
 1153              		.loc 7 69 20 is_stmt 0 view .LVU319
 1154 0428 80ED020A 		vstr.32	s0, [r0, #8]
 1155              		.loc 7 70 9 is_stmt 1 view .LVU320
 1156              		.loc 7 70 34 is_stmt 0 view .LVU321
 1157 042c FFF7FEFF 		bl	_ZN7daisysp10Oscillator12CalcPhaseIncEf
 1158              	.LVL77:
 1159              		.loc 7 70 34 view .LVU322
 1160              	.LBE356:
 1161              	.LBE359:
ARM GAS  C:\Users\louis\AppData\Local\Temp\ccZ2fpVL.s 			page 42


 191:test-daisy-seed.cpp **** 
 1162              		.loc 12 191 61 view .LVU323
 1163 0430 114A     		ldr	r2, .L43+4
 1164              	.LBB360:
 1165              	.LBB357:
 1166              		.loc 7 70 20 view .LVU324
 1167 0432 1448     		ldr	r0, .L43+16
 1168              	.LBE357:
 1169              	.LBE360:
 191:test-daisy-seed.cpp **** 
 1170              		.loc 12 191 61 view .LVU325
 1171 0434 1368     		ldr	r3, [r2]
 1172              	.LBB361:
 1173              	.LBB358:
 1174              		.loc 7 70 20 view .LVU326
 1175 0436 80ED070A 		vstr.32	s0, [r0, #28]
 1176              	.LVL78:
 1177              		.loc 7 70 20 view .LVU327
 1178              	.LBE358:
 1179              	.LBE361:
 191:test-daisy-seed.cpp **** 
 1180              		.loc 12 191 13 is_stmt 1 view .LVU328
 191:test-daisy-seed.cpp **** 
 1181              		.loc 12 191 61 is_stmt 0 view .LVU329
 1182 043a 0BEB031B 		add	fp, fp, r3, lsl #4
 191:test-daisy-seed.cpp **** 
 1183              		.loc 12 191 31 view .LVU330
 1184 043e DFED127A 		vldr.32	s15, .L43+20
 1185 0442 9BED020A 		vldr.32	s0, [fp, #8]
 1186              	.LBB362:
 1187              	.LBB363:
  69:../../DaisySP//Source/Synthesis/oscillator.h ****         phase_inc_ = CalcPhaseInc(f);
 1188              		.loc 7 69 20 view .LVU331
 1189 0446 DFF84CB0 		ldr	fp, .L43+32
 1190              	.LBE363:
 1191              	.LBE362:
 191:test-daisy-seed.cpp **** 
 1192              		.loc 12 191 31 view .LVU332
 1193 044a 20EE270A 		vmul.f32	s0, s0, s15
 1194              	.LVL79:
 1195              	.LBB366:
 1196              	.LBI362:
  67:../../DaisySP//Source/Synthesis/oscillator.h ****     {
 1197              		.loc 7 67 17 is_stmt 1 view .LVU333
 1198              	.LBB364:
  69:../../DaisySP//Source/Synthesis/oscillator.h ****         phase_inc_ = CalcPhaseInc(f);
 1199              		.loc 7 69 9 view .LVU334
 1200              		.loc 7 70 34 is_stmt 0 view .LVU335
 1201 044e 5846     		mov	r0, fp
  69:../../DaisySP//Source/Synthesis/oscillator.h ****         phase_inc_ = CalcPhaseInc(f);
 1202              		.loc 7 69 20 view .LVU336
 1203 0450 8BED020A 		vstr.32	s0, [fp, #8]
 1204              		.loc 7 70 9 is_stmt 1 view .LVU337
 1205              		.loc 7 70 34 is_stmt 0 view .LVU338
 1206 0454 FFF7FEFF 		bl	_ZN7daisysp10Oscillator12CalcPhaseIncEf
 1207              	.LVL80:
 1208              		.loc 7 70 34 view .LVU339
ARM GAS  C:\Users\louis\AppData\Local\Temp\ccZ2fpVL.s 			page 43


 1209              	.LBE364:
 1210              	.LBE366:
 1211              	.LBB367:
 1212              	.LBB368:
 1213              		.loc 6 64 38 view .LVU340
 1214 0458 0C4B     		ldr	r3, .L43+24
 1215 045a 0122     		movs	r2, #1
 1216              	.LBE368:
 1217              	.LBE367:
 1218              	.LBB370:
 1219              	.LBB365:
 1220              		.loc 7 70 20 view .LVU341
 1221 045c 8BED070A 		vstr.32	s0, [fp, #28]
 1222              	.LVL81:
 1223              		.loc 7 70 20 view .LVU342
 1224              	.LBE365:
 1225              	.LBE370:
 193:test-daisy-seed.cpp ****         }
 1226              		.loc 12 193 13 is_stmt 1 view .LVU343
 1227              	.LBB371:
 1228              	.LBI367:
 1229              		.loc 6 64 17 view .LVU344
 1230              	.LBB369:
 1231              		.loc 6 64 29 view .LVU345
 1232              		.loc 6 64 38 is_stmt 0 view .LVU346
 1233 0460 83F83420 		strb	r2, [r3, #52]
 1234              		.loc 6 64 43 view .LVU347
 1235 0464 EDE5     		b	.L20
 1236              	.LVL82:
 1237              	.L40:
 1238              		.loc 6 64 43 view .LVU348
 1239              	.LBE369:
 1240              	.LBE371:
 1241              	.LBE372:
 1242              	.LBE373:
 212:test-daisy-seed.cpp ****         }
 213:test-daisy-seed.cpp ****     }
 214:test-daisy-seed.cpp **** }
 1243              		.loc 12 214 1 view .LVU349
 1244 0466 05B0     		add	sp, sp, #20
 1245              		.cfi_def_cfa_offset 68
 1246              		@ sp needed
 1247 0468 BDEC088B 		vldm	sp!, {d8-d11}
 1248              		.cfi_restore 86
 1249              		.cfi_restore 87
 1250              		.cfi_restore 84
 1251              		.cfi_restore 85
 1252              		.cfi_restore 82
 1253              		.cfi_restore 83
 1254              		.cfi_restore 80
 1255              		.cfi_restore 81
 1256              		.cfi_def_cfa_offset 36
 1257              	.LVL83:
 1258              		.loc 12 214 1 view .LVU350
 1259 046c BDE8F08F 		pop	{r4, r5, r6, r7, r8, r9, r10, fp, pc}
 1260              	.LVL84:
 1261              	.L36:
ARM GAS  C:\Users\louis\AppData\Local\Temp\ccZ2fpVL.s 			page 44


 1262              		.cfi_def_cfa_offset 0
 1263              		.cfi_restore 4
 1264              		.cfi_restore 5
 1265              		.cfi_restore 6
 1266              		.cfi_restore 7
 1267              		.cfi_restore 8
 1268              		.cfi_restore 9
 1269              		.cfi_restore 10
 1270              		.cfi_restore 11
 1271              		.cfi_restore 14
 1272              		.loc 12 214 1 view .LVU351
 1273 0470 7047     		bx	lr
 1274              	.L44:
 1275 0472 00BF     		.align	2
 1276              	.L43:
 1277 0474 56555555 		.word	1431655766
 1278 0478 00000000 		.word	.LANCHOR22
 1279 047c 00000000 		.word	.LANCHOR8
 1280 0480 D7A3803F 		.word	1065395159
 1281 0484 00000000 		.word	.LANCHOR9
 1282 0488 52B87E3F 		.word	1065269330
 1283 048c 00000000 		.word	.LANCHOR11
 1284 0490 00000000 		.word	.LANCHOR23
 1285 0494 00000000 		.word	.LANCHOR10
 1286              		.cfi_endproc
 1287              	.LFE4681:
 1289              		.section	.text._ZN7daisysp10Oscillator4InitEf,"axG",%progbits,_ZN7daisysp10Oscillator4InitEf,comda
 1290              		.align	1
 1291              		.p2align 2,,3
 1292              		.weak	_ZN7daisysp10Oscillator4InitEf
 1293              		.syntax unified
 1294              		.thumb
 1295              		.thumb_func
 1296              		.fpu fpv5-d16
 1298              	_ZN7daisysp10Oscillator4InitEf:
 1299              	.LVL85:
 1300              	.LFB4242:
  50:../../DaisySP//Source/Synthesis/oscillator.h ****     {
 1301              		.loc 7 50 10 is_stmt 1 view -0
 1302              		.cfi_startproc
 1303              		@ args = 0, pretend = 0, frame = 0
 1304              		@ frame_needed = 0, uses_anonymous_args = 0
  52:../../DaisySP//Source/Synthesis/oscillator.h ****         sr_recip_  = 1.0f / sample_rate;
 1305              		.loc 7 52 9 view .LVU353
  50:../../DaisySP//Source/Synthesis/oscillator.h ****     {
 1306              		.loc 7 50 10 is_stmt 0 view .LVU354
 1307 0000 F0EE407A 		vmov.f32	s15, s0
  55:../../DaisySP//Source/Synthesis/oscillator.h ****         pw_        = 0.5f;
 1308              		.loc 7 55 20 view .LVU355
 1309 0004 4FF07C53 		mov	r3, #1056964608
  53:../../DaisySP//Source/Synthesis/oscillator.h ****         freq_      = 100.0f;
 1310              		.loc 7 53 27 view .LVU356
 1311 0008 F7EE006A 		vmov.f32	s13, #1.0e+0
  57:../../DaisySP//Source/Synthesis/oscillator.h ****         phase_inc_ = CalcPhaseInc(freq_);
 1312              		.loc 7 57 20 view .LVU357
 1313 000c 0022     		movs	r2, #0
  54:../../DaisySP//Source/Synthesis/oscillator.h ****         amp_       = 0.5f;
ARM GAS  C:\Users\louis\AppData\Local\Temp\ccZ2fpVL.s 			page 45


 1314              		.loc 7 54 20 view .LVU358
 1315 000e 9FED0C0A 		vldr.32	s0, .L47
 1316              	.LVL86:
  55:../../DaisySP//Source/Synthesis/oscillator.h ****         pw_        = 0.5f;
 1317              		.loc 7 55 20 view .LVU359
 1318 0012 4360     		str	r3, [r0, #4]	@ float
  53:../../DaisySP//Source/Synthesis/oscillator.h ****         freq_      = 100.0f;
 1319              		.loc 7 53 27 view .LVU360
 1320 0014 86EEA77A 		vdiv.f32	s14, s13, s15
  56:../../DaisySP//Source/Synthesis/oscillator.h ****         phase_     = 0.0f;
 1321              		.loc 7 56 20 view .LVU361
 1322 0018 C360     		str	r3, [r0, #12]	@ float
  57:../../DaisySP//Source/Synthesis/oscillator.h ****         phase_inc_ = CalcPhaseInc(freq_);
 1323              		.loc 7 57 20 view .LVU362
 1324 001a 8261     		str	r2, [r0, #24]	@ float
  52:../../DaisySP//Source/Synthesis/oscillator.h ****         sr_recip_  = 1.0f / sample_rate;
 1325              		.loc 7 52 20 view .LVU363
 1326 001c C0ED047A 		vstr.32	s15, [r0, #16]
  53:../../DaisySP//Source/Synthesis/oscillator.h ****         freq_      = 100.0f;
 1327              		.loc 7 53 9 is_stmt 1 view .LVU364
  54:../../DaisySP//Source/Synthesis/oscillator.h ****         amp_       = 0.5f;
 1328              		.loc 7 54 20 is_stmt 0 view .LVU365
 1329 0020 80ED020A 		vstr.32	s0, [r0, #8]
  50:../../DaisySP//Source/Synthesis/oscillator.h ****     {
 1330              		.loc 7 50 10 view .LVU366
 1331 0024 10B5     		push	{r4, lr}
 1332              		.cfi_def_cfa_offset 8
 1333              		.cfi_offset 4, -8
 1334              		.cfi_offset 14, -4
  50:../../DaisySP//Source/Synthesis/oscillator.h ****     {
 1335              		.loc 7 50 10 view .LVU367
 1336 0026 0446     		mov	r4, r0
  53:../../DaisySP//Source/Synthesis/oscillator.h ****         freq_      = 100.0f;
 1337              		.loc 7 53 20 view .LVU368
 1338 0028 80ED057A 		vstr.32	s14, [r0, #20]
  54:../../DaisySP//Source/Synthesis/oscillator.h ****         amp_       = 0.5f;
 1339              		.loc 7 54 9 is_stmt 1 view .LVU369
  55:../../DaisySP//Source/Synthesis/oscillator.h ****         pw_        = 0.5f;
 1340              		.loc 7 55 9 view .LVU370
  56:../../DaisySP//Source/Synthesis/oscillator.h ****         phase_     = 0.0f;
 1341              		.loc 7 56 9 view .LVU371
  57:../../DaisySP//Source/Synthesis/oscillator.h ****         phase_inc_ = CalcPhaseInc(freq_);
 1342              		.loc 7 57 9 view .LVU372
  58:../../DaisySP//Source/Synthesis/oscillator.h ****         waveform_  = WAVE_SIN;
 1343              		.loc 7 58 9 view .LVU373
  58:../../DaisySP//Source/Synthesis/oscillator.h ****         waveform_  = WAVE_SIN;
 1344              		.loc 7 58 34 is_stmt 0 view .LVU374
 1345 002c FFF7FEFF 		bl	_ZN7daisysp10Oscillator12CalcPhaseIncEf
 1346              	.LVL87:
  59:../../DaisySP//Source/Synthesis/oscillator.h ****         eoc_       = true;
 1347              		.loc 7 59 20 view .LVU375
 1348 0030 0022     		movs	r2, #0
  61:../../DaisySP//Source/Synthesis/oscillator.h ****     }
 1349              		.loc 7 61 20 view .LVU376
 1350 0032 40F20113 		movw	r3, #257
  58:../../DaisySP//Source/Synthesis/oscillator.h ****         waveform_  = WAVE_SIN;
 1351              		.loc 7 58 20 view .LVU377
ARM GAS  C:\Users\louis\AppData\Local\Temp\ccZ2fpVL.s 			page 46


 1352 0036 84ED070A 		vstr.32	s0, [r4, #28]
  59:../../DaisySP//Source/Synthesis/oscillator.h ****         eoc_       = true;
 1353              		.loc 7 59 9 is_stmt 1 view .LVU378
  59:../../DaisySP//Source/Synthesis/oscillator.h ****         eoc_       = true;
 1354              		.loc 7 59 20 is_stmt 0 view .LVU379
 1355 003a 2270     		strb	r2, [r4]
  60:../../DaisySP//Source/Synthesis/oscillator.h ****         eor_       = true;
 1356              		.loc 7 60 9 is_stmt 1 view .LVU380
  61:../../DaisySP//Source/Synthesis/oscillator.h ****     }
 1357              		.loc 7 61 9 view .LVU381
  61:../../DaisySP//Source/Synthesis/oscillator.h ****     }
 1358              		.loc 7 61 20 is_stmt 0 view .LVU382
 1359 003c 2385     		strh	r3, [r4, #40]	@ movhi
  62:../../DaisySP//Source/Synthesis/oscillator.h **** 
 1360              		.loc 7 62 5 view .LVU383
 1361 003e 10BD     		pop	{r4, pc}
 1362              	.LVL88:
 1363              	.L48:
  62:../../DaisySP//Source/Synthesis/oscillator.h **** 
 1364              		.loc 7 62 5 view .LVU384
 1365              		.align	2
 1366              	.L47:
 1367 0040 0000C842 		.word	1120403456
 1368              		.cfi_endproc
 1369              	.LFE4242:
 1371              		.section	.text.startup.main,"ax",%progbits
 1372              		.align	1
 1373              		.p2align 2,,3
 1374              		.global	main
 1375              		.syntax unified
 1376              		.thumb
 1377              		.thumb_func
 1378              		.fpu fpv5-d16
 1380              	main:
 1381              	.LFB4682:
 215:test-daisy-seed.cpp **** 
 216:test-daisy-seed.cpp **** // ------------------------------------------------------------
 217:test-daisy-seed.cpp **** // main
 218:test-daisy-seed.cpp **** // ------------------------------------------------------------
 219:test-daisy-seed.cpp **** int main(void)
 220:test-daisy-seed.cpp **** {
 1382              		.loc 12 220 1 is_stmt 1 view -0
 1383              		.cfi_startproc
 1384              		@ args = 0, pretend = 0, frame = 0
 1385              		@ frame_needed = 0, uses_anonymous_args = 0
 221:test-daisy-seed.cpp ****     hw.Configure();
 1386              		.loc 12 221 5 view .LVU386
 220:test-daisy-seed.cpp ****     hw.Configure();
 1387              		.loc 12 220 1 is_stmt 0 view .LVU387
 1388 0000 F8B5     		push	{r3, r4, r5, r6, r7, lr}
 1389              		.cfi_def_cfa_offset 24
 1390              		.cfi_offset 3, -24
 1391              		.cfi_offset 4, -20
 1392              		.cfi_offset 5, -16
 1393              		.cfi_offset 6, -12
 1394              		.cfi_offset 7, -8
 1395              		.cfi_offset 14, -4
ARM GAS  C:\Users\louis\AppData\Local\Temp\ccZ2fpVL.s 			page 47


 1396              		.loc 12 221 17 view .LVU388
 1397 0002 7E48     		ldr	r0, .L53
 1398              	.LBB422:
 1399              	.LBB423:
  71:../../DaisySP//Source/Synthesis/oscillator.h ****     }
  72:../../DaisySP//Source/Synthesis/oscillator.h **** 
  73:../../DaisySP//Source/Synthesis/oscillator.h **** 
  74:../../DaisySP//Source/Synthesis/oscillator.h ****     /** Sets the amplitude of the waveform.
  75:../../DaisySP//Source/Synthesis/oscillator.h ****     */
  76:../../DaisySP//Source/Synthesis/oscillator.h ****     inline void SetAmp(const float a) { amp_ = a; }
  77:../../DaisySP//Source/Synthesis/oscillator.h ****     /** Sets the waveform to be synthesized by the Process() function.
  78:../../DaisySP//Source/Synthesis/oscillator.h ****     */
  79:../../DaisySP//Source/Synthesis/oscillator.h ****     inline void SetWaveform(const uint8_t wf)
  80:../../DaisySP//Source/Synthesis/oscillator.h ****     {
  81:../../DaisySP//Source/Synthesis/oscillator.h ****         waveform_ = wf < WAVE_LAST ? wf : WAVE_SIN;
 1400              		.loc 7 81 19 view .LVU389
 1401 0004 0224     		movs	r4, #2
 1402              	.LBE423:
 1403              	.LBE422:
 222:test-daisy-seed.cpp ****     hw.Init();
 223:test-daisy-seed.cpp **** 
 224:test-daisy-seed.cpp ****     float sr = hw.AudioSampleRate();
 225:test-daisy-seed.cpp ****     samples_per_note  = sr * 0.25f;
 226:test-daisy-seed.cpp ****     samples_per_chord = sr * 4.0f;
 227:test-daisy-seed.cpp ****     samples_per_step  = sr * 0.5f; // ~120 bpm
 228:test-daisy-seed.cpp **** 
 229:test-daisy-seed.cpp ****     // ================== init mlodie ==================
 230:test-daisy-seed.cpp ****     osc.Init(sr);
 1404              		.loc 12 230 13 view .LVU390
 1405 0006 7E4E     		ldr	r6, .L53+4
 231:test-daisy-seed.cpp ****     osc.SetWaveform(Oscillator::WAVE_SAW);
 232:test-daisy-seed.cpp **** 
 233:test-daisy-seed.cpp ****     env.Init(sr);
 1406              		.loc 12 233 13 view .LVU391
 1407 0008 7E4D     		ldr	r5, .L53+8
 234:test-daisy-seed.cpp ****     env.SetTime(ADENV_SEG_ATTACK, 0.5f);
 235:test-daisy-seed.cpp ****     env.SetTime(ADENV_SEG_DECAY, 3.0f);
 236:test-daisy-seed.cpp **** 
 237:test-daisy-seed.cpp ****     // ================== init accords ==================
 238:test-daisy-seed.cpp ****     chord_osc1.Init(sr); chord_osc1.SetWaveform(Oscillator::WAVE_SAW);
 239:test-daisy-seed.cpp ****     chord_osc2.Init(sr); chord_osc2.SetWaveform(Oscillator::WAVE_SAW);
 1408              		.loc 12 239 20 view .LVU392
 1409 000a 7F4F     		ldr	r7, .L53+12
 220:test-daisy-seed.cpp ****     hw.Configure();
 1410              		.loc 12 220 1 view .LVU393
 1411 000c 2DED048B 		vpush.64	{d8, d9}
 1412              		.cfi_def_cfa_offset 40
 1413              		.cfi_offset 80, -40
 1414              		.cfi_offset 81, -36
 1415              		.cfi_offset 82, -32
 1416              		.cfi_offset 83, -28
 221:test-daisy-seed.cpp ****     hw.Init();
 1417              		.loc 12 221 17 view .LVU394
 1418 0010 FFF7FEFF 		bl	_ZN5daisy9DaisySeed9ConfigureEv
 1419              	.LVL89:
 222:test-daisy-seed.cpp **** 
 1420              		.loc 12 222 5 is_stmt 1 view .LVU395
ARM GAS  C:\Users\louis\AppData\Local\Temp\ccZ2fpVL.s 			page 48


 225:test-daisy-seed.cpp ****     samples_per_chord = sr * 4.0f;
 1421              		.loc 12 225 28 is_stmt 0 view .LVU396
 1422 0014 F5EE008A 		vmov.f32	s17, #2.5e-1
 222:test-daisy-seed.cpp **** 
 1423              		.loc 12 222 12 view .LVU397
 1424 0018 0021     		movs	r1, #0
 1425 001a 7848     		ldr	r0, .L53
 1426 001c FFF7FEFF 		bl	_ZN5daisy9DaisySeed4InitEb
 1427              	.LVL90:
 224:test-daisy-seed.cpp ****     samples_per_note  = sr * 0.25f;
 1428              		.loc 12 224 5 is_stmt 1 view .LVU398
 224:test-daisy-seed.cpp ****     samples_per_note  = sr * 0.25f;
 1429              		.loc 12 224 34 is_stmt 0 view .LVU399
 1430 0020 7648     		ldr	r0, .L53
 1431 0022 FFF7FEFF 		bl	_ZN5daisy9DaisySeed15AudioSampleRateEv
 1432              	.LVL91:
 226:test-daisy-seed.cpp ****     samples_per_step  = sr * 0.5f; // ~120 bpm
 1433              		.loc 12 226 28 view .LVU400
 1434 0026 F1EE007A 		vmov.f32	s15, #4.0e+0
 225:test-daisy-seed.cpp ****     samples_per_chord = sr * 4.0f;
 1435              		.loc 12 225 28 view .LVU401
 1436 002a 60EE286A 		vmul.f32	s13, s0, s17
 225:test-daisy-seed.cpp ****     samples_per_chord = sr * 4.0f;
 1437              		.loc 12 225 23 view .LVU402
 1438 002e 774B     		ldr	r3, .L53+16
 227:test-daisy-seed.cpp **** 
 1439              		.loc 12 227 28 view .LVU403
 1440 0030 B6EE009A 		vmov.f32	s18, #5.0e-1
 230:test-daisy-seed.cpp ****     osc.SetWaveform(Oscillator::WAVE_SAW);
 1441              		.loc 12 230 13 view .LVU404
 1442 0034 3046     		mov	r0, r6
 226:test-daisy-seed.cpp ****     samples_per_step  = sr * 0.5f; // ~120 bpm
 1443              		.loc 12 226 28 view .LVU405
 1444 0036 60EE277A 		vmul.f32	s15, s0, s15
 225:test-daisy-seed.cpp ****     samples_per_chord = sr * 4.0f;
 1445              		.loc 12 225 23 view .LVU406
 1446 003a FCEEE66A 		vcvt.u32.f32	s13, s13
 227:test-daisy-seed.cpp **** 
 1447              		.loc 12 227 28 view .LVU407
 1448 003e 20EE097A 		vmul.f32	s14, s0, s18
 226:test-daisy-seed.cpp ****     samples_per_step  = sr * 0.5f; // ~120 bpm
 1449              		.loc 12 226 23 view .LVU408
 1450 0042 FCEEE77A 		vcvt.u32.f32	s15, s15
 225:test-daisy-seed.cpp ****     samples_per_chord = sr * 4.0f;
 1451              		.loc 12 225 23 view .LVU409
 1452 0046 C3ED006A 		vstr.32	s13, [r3]	@ int
 224:test-daisy-seed.cpp ****     samples_per_note  = sr * 0.25f;
 1453              		.loc 12 224 34 view .LVU410
 1454 004a B0EE408A 		vmov.f32	s16, s0
 1455              	.LVL92:
 225:test-daisy-seed.cpp ****     samples_per_chord = sr * 4.0f;
 1456              		.loc 12 225 5 is_stmt 1 view .LVU411
 226:test-daisy-seed.cpp ****     samples_per_step  = sr * 0.5f; // ~120 bpm
 1457              		.loc 12 226 5 view .LVU412
 226:test-daisy-seed.cpp ****     samples_per_step  = sr * 0.5f; // ~120 bpm
 1458              		.loc 12 226 23 is_stmt 0 view .LVU413
 1459 004e 704B     		ldr	r3, .L53+20
ARM GAS  C:\Users\louis\AppData\Local\Temp\ccZ2fpVL.s 			page 49


 227:test-daisy-seed.cpp **** 
 1460              		.loc 12 227 23 view .LVU414
 1461 0050 BCEEC77A 		vcvt.u32.f32	s14, s14
 226:test-daisy-seed.cpp ****     samples_per_step  = sr * 0.5f; // ~120 bpm
 1462              		.loc 12 226 23 view .LVU415
 1463 0054 C3ED007A 		vstr.32	s15, [r3]	@ int
 227:test-daisy-seed.cpp **** 
 1464              		.loc 12 227 5 is_stmt 1 view .LVU416
 227:test-daisy-seed.cpp **** 
 1465              		.loc 12 227 23 is_stmt 0 view .LVU417
 1466 0058 6E4B     		ldr	r3, .L53+24
 1467 005a 83ED007A 		vstr.32	s14, [r3]	@ int
 230:test-daisy-seed.cpp ****     osc.SetWaveform(Oscillator::WAVE_SAW);
 1468              		.loc 12 230 5 is_stmt 1 view .LVU418
 230:test-daisy-seed.cpp ****     osc.SetWaveform(Oscillator::WAVE_SAW);
 1469              		.loc 12 230 13 is_stmt 0 view .LVU419
 1470 005e FFF7FEFF 		bl	_ZN7daisysp10Oscillator4InitEf
 1471              	.LVL93:
 231:test-daisy-seed.cpp **** 
 1472              		.loc 12 231 5 is_stmt 1 view .LVU420
 1473              	.LBB426:
 1474              	.LBI422:
  79:../../DaisySP//Source/Synthesis/oscillator.h ****     {
 1475              		.loc 7 79 17 view .LVU421
 1476              	.LBB424:
 1477              		.loc 7 81 9 view .LVU422
 1478              	.LBE424:
 1479              	.LBE426:
 233:test-daisy-seed.cpp ****     env.SetTime(ADENV_SEG_ATTACK, 0.5f);
 1480              		.loc 12 233 13 is_stmt 0 view .LVU423
 1481 0062 2846     		mov	r0, r5
 1482 0064 B0EE480A 		vmov.f32	s0, s16
 1483              	.LBB427:
 1484              	.LBB425:
 1485              		.loc 7 81 19 view .LVU424
 1486 0068 3470     		strb	r4, [r6]
 1487              	.LVL94:
 1488              		.loc 7 81 19 view .LVU425
 1489              	.LBE425:
 1490              	.LBE427:
 233:test-daisy-seed.cpp ****     env.SetTime(ADENV_SEG_ATTACK, 0.5f);
 1491              		.loc 12 233 5 is_stmt 1 view .LVU426
 233:test-daisy-seed.cpp ****     env.SetTime(ADENV_SEG_ATTACK, 0.5f);
 1492              		.loc 12 233 13 is_stmt 0 view .LVU427
 1493 006a FFF7FEFF 		bl	_ZN7daisysp5AdEnv4InitEf
 1494              	.LVL95:
 234:test-daisy-seed.cpp ****     env.SetTime(ADENV_SEG_DECAY, 3.0f);
 1495              		.loc 12 234 5 is_stmt 1 view .LVU428
 1496              	.LBB428:
 1497              	.LBI428:
  65:../../DaisySP//Source/Control/adenv.h ****     /** Sets the length of time (in seconds) for a specific segment. */
  66:../../DaisySP//Source/Control/adenv.h ****     inline void SetTime(uint8_t seg, float time) { segment_time_[seg] = time; }
 1498              		.loc 6 66 17 view .LVU429
 1499              	.LBB429:
 1500              		.loc 6 66 52 view .LVU430
 1501              	.LBE429:
 1502              	.LBE428:
ARM GAS  C:\Users\louis\AppData\Local\Temp\ccZ2fpVL.s 			page 50


 238:test-daisy-seed.cpp ****     chord_osc2.Init(sr); chord_osc2.SetWaveform(Oscillator::WAVE_SAW);
 1503              		.loc 12 238 20 is_stmt 0 view .LVU431
 1504 006e 6A4E     		ldr	r6, .L53+28
 1505 0070 B0EE480A 		vmov.f32	s0, s16
 1506              	.LBB431:
 1507              	.LBB432:
 1508              		.loc 6 66 71 view .LVU432
 1509 0074 694B     		ldr	r3, .L53+32
 1510              	.LBE432:
 1511              	.LBE431:
 238:test-daisy-seed.cpp ****     chord_osc2.Init(sr); chord_osc2.SetWaveform(Oscillator::WAVE_SAW);
 1512              		.loc 12 238 20 view .LVU433
 1513 0076 3046     		mov	r0, r6
 1514              	.LBB434:
 1515              	.LBB430:
 1516              		.loc 6 66 71 view .LVU434
 1517 0078 85ED029A 		vstr.32	s18, [r5, #8]
 1518              	.LVL96:
 1519              		.loc 6 66 71 view .LVU435
 1520              	.LBE430:
 1521              	.LBE434:
 235:test-daisy-seed.cpp **** 
 1522              		.loc 12 235 5 is_stmt 1 view .LVU436
 1523              	.LBB435:
 1524              	.LBI431:
 1525              		.loc 6 66 17 view .LVU437
 1526              	.LBB433:
 1527              		.loc 6 66 52 view .LVU438
 1528              		.loc 6 66 71 is_stmt 0 view .LVU439
 1529 007c EB60     		str	r3, [r5, #12]	@ float
 1530              	.LVL97:
 1531              		.loc 6 66 71 view .LVU440
 1532              	.LBE433:
 1533              	.LBE435:
 238:test-daisy-seed.cpp ****     chord_osc2.Init(sr); chord_osc2.SetWaveform(Oscillator::WAVE_SAW);
 1534              		.loc 12 238 5 is_stmt 1 view .LVU441
 240:test-daisy-seed.cpp ****     chord_osc3.Init(sr); chord_osc3.SetWaveform(Oscillator::WAVE_SAW);
 1535              		.loc 12 240 20 is_stmt 0 view .LVU442
 1536 007e 684D     		ldr	r5, .L53+36
 238:test-daisy-seed.cpp ****     chord_osc2.Init(sr); chord_osc2.SetWaveform(Oscillator::WAVE_SAW);
 1537              		.loc 12 238 20 view .LVU443
 1538 0080 FFF7FEFF 		bl	_ZN7daisysp10Oscillator4InitEf
 1539              	.LVL98:
 238:test-daisy-seed.cpp ****     chord_osc2.Init(sr); chord_osc2.SetWaveform(Oscillator::WAVE_SAW);
 1540              		.loc 12 238 26 is_stmt 1 view .LVU444
 1541              	.LBB436:
 1542              	.LBI436:
  79:../../DaisySP//Source/Synthesis/oscillator.h ****     {
 1543              		.loc 7 79 17 view .LVU445
 1544              	.LBB437:
 1545              		.loc 7 81 9 view .LVU446
 1546              	.LBE437:
 1547              	.LBE436:
 239:test-daisy-seed.cpp ****     chord_osc3.Init(sr); chord_osc3.SetWaveform(Oscillator::WAVE_SAW);
 1548              		.loc 12 239 20 is_stmt 0 view .LVU447
 1549 0084 3846     		mov	r0, r7
 1550              	.LBB439:
ARM GAS  C:\Users\louis\AppData\Local\Temp\ccZ2fpVL.s 			page 51


 1551              	.LBB438:
 1552              		.loc 7 81 19 view .LVU448
 1553 0086 3470     		strb	r4, [r6]
 1554              	.LVL99:
 1555              		.loc 7 81 19 view .LVU449
 1556              	.LBE438:
 1557              	.LBE439:
 239:test-daisy-seed.cpp ****     chord_osc3.Init(sr); chord_osc3.SetWaveform(Oscillator::WAVE_SAW);
 1558              		.loc 12 239 5 is_stmt 1 view .LVU450
 239:test-daisy-seed.cpp ****     chord_osc3.Init(sr); chord_osc3.SetWaveform(Oscillator::WAVE_SAW);
 1559              		.loc 12 239 20 is_stmt 0 view .LVU451
 1560 0088 B0EE480A 		vmov.f32	s0, s16
 241:test-daisy-seed.cpp **** 
 242:test-daisy-seed.cpp ****     chord_env.Init(sr);
 1561              		.loc 12 242 19 view .LVU452
 1562 008c 654E     		ldr	r6, .L53+40
 239:test-daisy-seed.cpp ****     chord_osc3.Init(sr); chord_osc3.SetWaveform(Oscillator::WAVE_SAW);
 1563              		.loc 12 239 20 view .LVU453
 1564 008e FFF7FEFF 		bl	_ZN7daisysp10Oscillator4InitEf
 1565              	.LVL100:
 239:test-daisy-seed.cpp ****     chord_osc3.Init(sr); chord_osc3.SetWaveform(Oscillator::WAVE_SAW);
 1566              		.loc 12 239 26 is_stmt 1 view .LVU454
 1567              	.LBB440:
 1568              	.LBI440:
  79:../../DaisySP//Source/Synthesis/oscillator.h ****     {
 1569              		.loc 7 79 17 view .LVU455
 1570              	.LBB441:
 1571              		.loc 7 81 9 view .LVU456
 1572              	.LBE441:
 1573              	.LBE440:
 240:test-daisy-seed.cpp **** 
 1574              		.loc 12 240 20 is_stmt 0 view .LVU457
 1575 0092 2846     		mov	r0, r5
 1576 0094 B0EE480A 		vmov.f32	s0, s16
 1577              	.LBB443:
 1578              	.LBB442:
 1579              		.loc 7 81 19 view .LVU458
 1580 0098 3C70     		strb	r4, [r7]
 1581              	.LVL101:
 1582              		.loc 7 81 19 view .LVU459
 1583              	.LBE442:
 1584              	.LBE443:
 240:test-daisy-seed.cpp **** 
 1585              		.loc 12 240 5 is_stmt 1 view .LVU460
 240:test-daisy-seed.cpp **** 
 1586              		.loc 12 240 20 is_stmt 0 view .LVU461
 1587 009a FFF7FEFF 		bl	_ZN7daisysp10Oscillator4InitEf
 1588              	.LVL102:
 240:test-daisy-seed.cpp **** 
 1589              		.loc 12 240 26 is_stmt 1 view .LVU462
 1590              	.LBB444:
 1591              	.LBI444:
  79:../../DaisySP//Source/Synthesis/oscillator.h ****     {
 1592              		.loc 7 79 17 view .LVU463
 1593              	.LBB445:
 1594              		.loc 7 81 9 view .LVU464
 1595              	.LBE445:
ARM GAS  C:\Users\louis\AppData\Local\Temp\ccZ2fpVL.s 			page 52


 1596              	.LBE444:
 1597              		.loc 12 242 19 is_stmt 0 view .LVU465
 1598 009e 3046     		mov	r0, r6
 1599 00a0 B0EE480A 		vmov.f32	s0, s16
 1600              	.LBB447:
 1601              	.LBB446:
 1602              		.loc 7 81 19 view .LVU466
 1603 00a4 2C70     		strb	r4, [r5]
 1604              	.LVL103:
 1605              		.loc 7 81 19 view .LVU467
 1606              	.LBE446:
 1607              	.LBE447:
 1608              		.loc 12 242 5 is_stmt 1 view .LVU468
 243:test-daisy-seed.cpp ****     chord_env.SetTime(ADENV_SEG_ATTACK, 2.0f);
 244:test-daisy-seed.cpp ****     chord_env.SetTime(ADENV_SEG_DECAY, 6.0f);
 245:test-daisy-seed.cpp **** 
 246:test-daisy-seed.cpp ****     // ================== init drums ==================
 247:test-daisy-seed.cpp ****     kick_osc.Init(sr);
 1609              		.loc 12 247 18 is_stmt 0 view .LVU469
 1610 00a6 604F     		ldr	r7, .L53+44
 242:test-daisy-seed.cpp ****     chord_env.SetTime(ADENV_SEG_ATTACK, 2.0f);
 1611              		.loc 12 242 19 view .LVU470
 1612 00a8 FFF7FEFF 		bl	_ZN7daisysp5AdEnv4InitEf
 1613              	.LVL104:
 243:test-daisy-seed.cpp ****     chord_env.SetTime(ADENV_SEG_ATTACK, 2.0f);
 1614              		.loc 12 243 5 is_stmt 1 view .LVU471
 1615              	.LBB448:
 1616              	.LBI448:
 1617              		.loc 6 66 17 view .LVU472
 1618              	.LBB449:
 1619              		.loc 6 66 52 view .LVU473
 1620              		.loc 6 66 71 is_stmt 0 view .LVU474
 1621 00ac 4FF08042 		mov	r2, #1073741824
 1622              	.LBE449:
 1623              	.LBE448:
 1624              	.LBB451:
 1625              	.LBB452:
 1626 00b0 5E4B     		ldr	r3, .L53+48
 1627              	.LBE452:
 1628              	.LBE451:
 248:test-daisy-seed.cpp ****     kick_osc.SetWaveform(Oscillator::WAVE_SIN);
 249:test-daisy-seed.cpp **** 
 250:test-daisy-seed.cpp ****     kick_env.Init(sr);
 1629              		.loc 12 250 18 view .LVU475
 1630 00b2 5F4D     		ldr	r5, .L53+52
 1631              	.LBB455:
 1632              	.LBB456:
 1633              		.loc 7 81 19 view .LVU476
 1634 00b4 0024     		movs	r4, #0
 1635              	.LBE456:
 1636              	.LBE455:
 1637              	.LBB459:
 1638              	.LBB450:
 1639              		.loc 6 66 71 view .LVU477
 1640 00b6 B260     		str	r2, [r6, #8]	@ float
 1641              	.LVL105:
 1642              		.loc 6 66 71 view .LVU478
ARM GAS  C:\Users\louis\AppData\Local\Temp\ccZ2fpVL.s 			page 53


 1643              	.LBE450:
 1644              	.LBE459:
 244:test-daisy-seed.cpp **** 
 1645              		.loc 12 244 5 is_stmt 1 view .LVU479
 1646              	.LBB460:
 1647              	.LBI451:
 1648              		.loc 6 66 17 view .LVU480
 1649              	.LBB453:
 1650              		.loc 6 66 52 view .LVU481
 1651              	.LBE453:
 1652              	.LBE460:
 247:test-daisy-seed.cpp ****     kick_osc.SetWaveform(Oscillator::WAVE_SIN);
 1653              		.loc 12 247 18 is_stmt 0 view .LVU482
 1654 00b8 B0EE480A 		vmov.f32	s0, s16
 1655              	.LBB461:
 1656              	.LBB454:
 1657              		.loc 6 66 71 view .LVU483
 1658 00bc F360     		str	r3, [r6, #12]	@ float
 1659              	.LVL106:
 1660              		.loc 6 66 71 view .LVU484
 1661              	.LBE454:
 1662              	.LBE461:
 247:test-daisy-seed.cpp ****     kick_osc.SetWaveform(Oscillator::WAVE_SIN);
 1663              		.loc 12 247 5 is_stmt 1 view .LVU485
 247:test-daisy-seed.cpp ****     kick_osc.SetWaveform(Oscillator::WAVE_SIN);
 1664              		.loc 12 247 18 is_stmt 0 view .LVU486
 1665 00be 3846     		mov	r0, r7
 1666 00c0 FFF7FEFF 		bl	_ZN7daisysp10Oscillator4InitEf
 1667              	.LVL107:
 248:test-daisy-seed.cpp ****     kick_osc.SetWaveform(Oscillator::WAVE_SIN);
 1668              		.loc 12 248 5 is_stmt 1 view .LVU487
 1669              	.LBB462:
 1670              	.LBI455:
  79:../../DaisySP//Source/Synthesis/oscillator.h ****     {
 1671              		.loc 7 79 17 view .LVU488
 1672              	.LBB457:
 1673              		.loc 7 81 9 view .LVU489
 1674              	.LBE457:
 1675              	.LBE462:
 1676              		.loc 12 250 18 is_stmt 0 view .LVU490
 1677 00c4 2846     		mov	r0, r5
 1678 00c6 B0EE480A 		vmov.f32	s0, s16
 1679              	.LBB463:
 1680              	.LBB458:
 1681              		.loc 7 81 19 view .LVU491
 1682 00ca 3C70     		strb	r4, [r7]
 1683              	.LVL108:
 1684              		.loc 7 81 19 view .LVU492
 1685              	.LBE458:
 1686              	.LBE463:
 1687              		.loc 12 250 5 is_stmt 1 view .LVU493
 1688              		.loc 12 250 18 is_stmt 0 view .LVU494
 1689 00cc FFF7FEFF 		bl	_ZN7daisysp5AdEnv4InitEf
 1690              	.LVL109:
 251:test-daisy-seed.cpp ****     kick_env.SetTime(ADENV_SEG_ATTACK, 0.001f);
 1691              		.loc 12 251 5 is_stmt 1 view .LVU495
 1692              	.LBB464:
ARM GAS  C:\Users\louis\AppData\Local\Temp\ccZ2fpVL.s 			page 54


 1693              	.LBI464:
 1694              		.loc 6 66 17 view .LVU496
 1695              	.LBB465:
 1696              		.loc 6 66 52 view .LVU497
 1697              	.LBE465:
 1698              	.LBE464:
 1699              	.LBB468:
 1700              	.LBB469:
  29:../../DaisySP//Source/Noise/whitenoise.h ****         randseed_ = 1;
 1701              		.loc 10 29 19 is_stmt 0 view .LVU498
 1702 00d0 584B     		ldr	r3, .L53+56
 1703 00d2 4FF07E52 		mov	r2, #1065353216
 1704              	.LBE469:
 1705              	.LBE468:
 1706              	.LBB473:
 1707              	.LBB466:
 1708              		.loc 6 66 71 view .LVU499
 1709 00d6 584E     		ldr	r6, .L53+60
 1710              	.LBE466:
 1711              	.LBE473:
 252:test-daisy-seed.cpp ****     kick_env.SetTime(ADENV_SEG_DECAY, 0.25f);
 253:test-daisy-seed.cpp **** 
 254:test-daisy-seed.cpp ****     noise.Init();
 255:test-daisy-seed.cpp **** 
 256:test-daisy-seed.cpp ****     hihat_filter.Init(sr);
 1712              		.loc 12 256 22 view .LVU500
 1713 00d8 B0EE480A 		vmov.f32	s0, s16
 1714 00dc 5748     		ldr	r0, .L53+64
 1715              	.LBB474:
 1716              	.LBB470:
  29:../../DaisySP//Source/Noise/whitenoise.h ****         randseed_ = 1;
 1717              		.loc 10 29 19 view .LVU501
 1718 00de 1A60     		str	r2, [r3]	@ float
  30:../../DaisySP//Source/Noise/whitenoise.h ****     }
 1719              		.loc 10 30 19 view .LVU502
 1720 00e0 0122     		movs	r2, #1
 1721              	.LBE470:
 1722              	.LBE474:
 1723              	.LBB475:
 1724              	.LBB467:
 1725              		.loc 6 66 71 view .LVU503
 1726 00e2 AE60     		str	r6, [r5, #8]	@ float
 1727              	.LVL110:
 1728              		.loc 6 66 71 view .LVU504
 1729              	.LBE467:
 1730              	.LBE475:
 252:test-daisy-seed.cpp ****     kick_env.SetTime(ADENV_SEG_DECAY, 0.25f);
 1731              		.loc 12 252 5 is_stmt 1 view .LVU505
 1732              	.LBB476:
 1733              	.LBI476:
 1734              		.loc 6 66 17 view .LVU506
 1735              	.LBB477:
 1736              		.loc 6 66 52 view .LVU507
 1737              		.loc 6 66 52 is_stmt 0 view .LVU508
 1738              	.LBE477:
 1739              	.LBE476:
 254:test-daisy-seed.cpp **** 
ARM GAS  C:\Users\louis\AppData\Local\Temp\ccZ2fpVL.s 			page 55


 1740              		.loc 12 254 5 is_stmt 1 view .LVU509
 1741              	.LBB479:
 1742              	.LBI468:
  27:../../DaisySP//Source/Noise/whitenoise.h ****     {
 1743              		.loc 10 27 10 view .LVU510
 1744              	.LBB471:
  29:../../DaisySP//Source/Noise/whitenoise.h ****         randseed_ = 1;
 1745              		.loc 10 29 9 view .LVU511
  30:../../DaisySP//Source/Noise/whitenoise.h ****     }
 1746              		.loc 10 30 9 view .LVU512
 1747              	.LBE471:
 1748              	.LBE479:
 1749              	.LBB480:
 1750              	.LBB478:
 1751              		.loc 6 66 71 is_stmt 0 view .LVU513
 1752 00e4 C5ED038A 		vstr.32	s17, [r5, #12]
 1753              	.LBE478:
 1754              	.LBE480:
 1755              	.LBB481:
 1756              	.LBB472:
  30:../../DaisySP//Source/Noise/whitenoise.h ****     }
 1757              		.loc 10 30 19 view .LVU514
 1758 00e8 5A60     		str	r2, [r3, #4]
 1759              	.LVL111:
  30:../../DaisySP//Source/Noise/whitenoise.h ****     }
 1760              		.loc 10 30 19 view .LVU515
 1761              	.LBE472:
 1762              	.LBE481:
 1763              		.loc 12 256 5 is_stmt 1 view .LVU516
 1764              		.loc 12 256 22 is_stmt 0 view .LVU517
 1765 00ea FFF7FEFF 		bl	_ZN7daisysp3Svf4InitEf
 1766              	.LVL112:
 257:test-daisy-seed.cpp ****     hihat_filter.SetFreq(8000.0f);
 1767              		.loc 12 257 5 is_stmt 1 view .LVU518
 258:test-daisy-seed.cpp ****     hihat_filter.SetRes(0.7f);
 259:test-daisy-seed.cpp **** 
 260:test-daisy-seed.cpp ****     hihat_env.Init(sr);
 1768              		.loc 12 260 19 is_stmt 0 view .LVU519
 1769 00ee 544D     		ldr	r5, .L53+68
 257:test-daisy-seed.cpp ****     hihat_filter.SetFreq(8000.0f);
 1770              		.loc 12 257 25 view .LVU520
 1771 00f0 9FED540A 		vldr.32	s0, .L53+72
 1772 00f4 5148     		ldr	r0, .L53+64
 1773 00f6 FFF7FEFF 		bl	_ZN7daisysp3Svf7SetFreqEf
 1774              	.LVL113:
 258:test-daisy-seed.cpp ****     hihat_filter.SetRes(0.7f);
 1775              		.loc 12 258 5 is_stmt 1 view .LVU521
 258:test-daisy-seed.cpp ****     hihat_filter.SetRes(0.7f);
 1776              		.loc 12 258 24 is_stmt 0 view .LVU522
 1777 00fa 9FED530A 		vldr.32	s0, .L53+76
 1778 00fe 4F48     		ldr	r0, .L53+64
 1779 0100 FFF7FEFF 		bl	_ZN7daisysp3Svf6SetResEf
 1780              	.LVL114:
 1781              		.loc 12 260 5 is_stmt 1 view .LVU523
 1782              		.loc 12 260 19 is_stmt 0 view .LVU524
 1783 0104 B0EE480A 		vmov.f32	s0, s16
 1784 0108 2846     		mov	r0, r5
ARM GAS  C:\Users\louis\AppData\Local\Temp\ccZ2fpVL.s 			page 56


 1785 010a FFF7FEFF 		bl	_ZN7daisysp5AdEnv4InitEf
 1786              	.LVL115:
 261:test-daisy-seed.cpp ****     hihat_env.SetTime(ADENV_SEG_ATTACK, 0.001f);
 1787              		.loc 12 261 5 is_stmt 1 view .LVU525
 1788              	.LBB482:
 1789              	.LBI482:
 1790              		.loc 6 66 17 view .LVU526
 1791              	.LBB483:
 1792              		.loc 6 66 52 view .LVU527
 1793              	.LBE483:
 1794              	.LBE482:
 1795              	.LBB485:
 1796              	.LBB486:
 1797              	.LBB487:
 1798              	.LBB488:
  42:../../DaisySP//Source/Utility/delayline.h ****         }
 1799              		.loc 11 42 22 is_stmt 0 view .LVU528
 1800 010e 4F4B     		ldr	r3, .L53+80
 1801              	.LBE488:
 1802              	.LBE487:
 1803              	.LBE486:
 1804              	.LBE485:
 1805              	.LBB503:
 1806              	.LBB504:
 1807              		.loc 6 66 71 view .LVU529
 1808 0110 4F4A     		ldr	r2, .L53+84
 1809              	.LBE504:
 1810              	.LBE503:
 1811              	.LBB507:
 1812              	.LBB498:
 1813              	.LBB493:
 1814              	.LBB489:
  42:../../DaisySP//Source/Utility/delayline.h ****         }
 1815              		.loc 11 42 22 view .LVU530
 1816 0112 2146     		mov	r1, r4
 1817              	.LBE489:
 1818              	.LBE493:
 1819              	.LBE498:
 1820              	.LBE507:
 1821              	.LBB508:
 1822              	.LBB484:
 1823              		.loc 6 66 71 view .LVU531
 1824 0114 AE60     		str	r6, [r5, #8]	@ float
 1825              	.LVL116:
 1826              		.loc 6 66 71 view .LVU532
 1827              	.LBE484:
 1828              	.LBE508:
 262:test-daisy-seed.cpp ****     hihat_env.SetTime(ADENV_SEG_DECAY, 0.08f);
 1829              		.loc 12 262 5 is_stmt 1 view .LVU533
 1830              	.LBB509:
 1831              	.LBI503:
 1832              		.loc 6 66 17 view .LVU534
 1833              	.LBB505:
 1834              		.loc 6 66 52 view .LVU535
 1835              		.loc 6 66 52 is_stmt 0 view .LVU536
 1836              	.LBE505:
 1837              	.LBE509:
ARM GAS  C:\Users\louis\AppData\Local\Temp\ccZ2fpVL.s 			page 57


 1838              	.LBB510:
 1839              	.LBB499:
 1840              	.LBB494:
 1841              	.LBB490:
  40:../../DaisySP//Source/Utility/delayline.h ****         {
 1842              		.loc 11 40 29 is_stmt 1 view .LVU537
  42:../../DaisySP//Source/Utility/delayline.h ****         }
 1843              		.loc 11 42 22 is_stmt 0 view .LVU538
 1844 0116 1846     		mov	r0, r3
 1845              	.LBE490:
 1846              	.LBE494:
 1847              	.LBE499:
 1848              	.LBE510:
 1849              	.LBB511:
 1850              	.LBB506:
 1851              		.loc 6 66 71 view .LVU539
 1852 0118 EA60     		str	r2, [r5, #12]	@ float
 1853              	.LBE506:
 1854              	.LBE511:
 1855              	.LBB512:
 1856              	.LBB500:
 1857              	.LBB495:
 1858              	.LBB491:
  42:../../DaisySP//Source/Utility/delayline.h ****         }
 1859              		.loc 11 42 22 view .LVU540
 1860 011a 4E4A     		ldr	r2, .L53+88
 1861 011c FFF7FEFF 		bl	memset
 1862              	.LVL117:
 1863              	.LBE491:
 1864              	.LBE495:
 1865              	.LBE500:
 1866              	.LBE512:
 263:test-daisy-seed.cpp **** 
 264:test-daisy-seed.cpp ****     // ================== init effets ==================
 265:test-daisy-seed.cpp ****     delay_line.Init();
 266:test-daisy-seed.cpp ****     delay_line.SetDelay(sr * 0.35f);
 1867              		.loc 12 266 24 view .LVU541
 1868 0120 DFED4D7A 		vldr.32	s15, .L53+92
 1869              	.LBB513:
 1870              	.LBB501:
 1871              	.LBB496:
 1872              	.LBB492:
  42:../../DaisySP//Source/Utility/delayline.h ****         }
 1873              		.loc 11 42 22 view .LVU542
 1874 0124 0346     		mov	r3, r0
 1875              	.LVL118:
  42:../../DaisySP//Source/Utility/delayline.h ****         }
 1876              		.loc 11 42 22 view .LVU543
 1877              	.LBE492:
 1878              	.LBE496:
 1879              	.LBE501:
 1880              	.LBE513:
 1881              	.LBB514:
 1882              	.LBB515:
  64:../../DaisySP//Source/Utility/delayline.h ****                                                            : max_size - 1;
 1883              		.loc 11 64 60 view .LVU544
 1884 0126 4BF67F32 		movw	r2, #47999
ARM GAS  C:\Users\louis\AppData\Local\Temp\ccZ2fpVL.s 			page 58


 1885              	.LBE515:
 1886              	.LBE514:
 1887              		.loc 12 266 24 view .LVU545
 1888 012a 68EE277A 		vmul.f32	s15, s16, s15
 1889              	.LBB518:
 1890              	.LBB502:
 1891              	.LBB497:
  44:../../DaisySP//Source/Utility/delayline.h ****         delay_     = 1;
 1892              		.loc 11 44 20 view .LVU546
 1893 012e 40F8084C 		str	r4, [r0, #-8]
 1894              	.LBE497:
 1895              	.LBE502:
 1896              	.LBE518:
 1897              		.loc 12 266 5 is_stmt 1 view .LVU547
 1898              	.LVL119:
 1899              	.LBB519:
 1900              	.LBI514:
  60:../../DaisySP//Source/Utility/delayline.h ****     {
 1901              		.loc 11 60 17 view .LVU548
 1902              	.LBE519:
 267:test-daisy-seed.cpp **** 
 268:test-daisy-seed.cpp ****     melody_filter.Init(sr);
 269:test-daisy-seed.cpp ****     melody_filter.SetRes(0.6f);
 270:test-daisy-seed.cpp **** 
 271:test-daisy-seed.cpp ****     lfo.Init(sr);
 1903              		.loc 12 271 13 is_stmt 0 view .LVU549
 1904 0132 4A4E     		ldr	r6, .L53+96
 268:test-daisy-seed.cpp ****     melody_filter.SetRes(0.6f);
 1905              		.loc 12 268 23 view .LVU550
 1906 0134 B0EE480A 		vmov.f32	s0, s16
 272:test-daisy-seed.cpp ****     lfo.SetWaveform(Oscillator::WAVE_SIN);
 273:test-daisy-seed.cpp ****     lfo.SetFreq(0.15f);
 274:test-daisy-seed.cpp **** 
 275:test-daisy-seed.cpp ****     chord_lfo.Init(sr);
 1907              		.loc 12 275 19 view .LVU551
 1908 0138 494D     		ldr	r5, .L53+100
 1909              	.LBB520:
 1910              	.LBB516:
  62:../../DaisySP//Source/Utility/delayline.h ****         frac_             = delay - static_cast<float>(int_delay);
 1911              		.loc 11 62 17 view .LVU552
 1912 013a BDEEE77A 		vcvt.s32.f32	s14, s15
 1913              	.LVL120:
  64:../../DaisySP//Source/Utility/delayline.h ****                                                            : max_size - 1;
 1914              		.loc 11 64 60 view .LVU553
 1915 013e 17EE100A 		vmov	r0, s14	@ int
  63:../../DaisySP//Source/Utility/delayline.h ****         delay_ = static_cast<size_t>(int_delay) < max_size ? int_delay
 1916              		.loc 11 63 37 view .LVU554
 1917 0142 F8EEC76A 		vcvt.f32.s32	s13, s14
  64:../../DaisySP//Source/Utility/delayline.h ****                                                            : max_size - 1;
 1918              		.loc 11 64 60 view .LVU555
 1919 0146 9042     		cmp	r0, r2
  63:../../DaisySP//Source/Utility/delayline.h ****         delay_ = static_cast<size_t>(int_delay) < max_size ? int_delay
 1920              		.loc 11 63 35 view .LVU556
 1921 0148 77EEE67A 		vsub.f32	s15, s15, s13
 1922              	.LVL121:
  64:../../DaisySP//Source/Utility/delayline.h ****                                                            : max_size - 1;
 1923              		.loc 11 64 60 view .LVU557
ARM GAS  C:\Users\louis\AppData\Local\Temp\ccZ2fpVL.s 			page 59


 1924 014c 28BF     		it	cs
 1925 014e 1046     		movcs	r0, r2
  64:../../DaisySP//Source/Utility/delayline.h ****                                                            : max_size - 1;
 1926              		.loc 11 64 16 view .LVU558
 1927 0150 43F8040C 		str	r0, [r3, #-4]
 1928              	.LVL122:
  64:../../DaisySP//Source/Utility/delayline.h ****                                                            : max_size - 1;
 1929              		.loc 11 64 16 view .LVU559
 1930              	.LBE516:
 1931              	.LBE520:
 268:test-daisy-seed.cpp ****     melody_filter.SetRes(0.6f);
 1932              		.loc 12 268 5 is_stmt 1 view .LVU560
 268:test-daisy-seed.cpp ****     melody_filter.SetRes(0.6f);
 1933              		.loc 12 268 23 is_stmt 0 view .LVU561
 1934 0154 4348     		ldr	r0, .L53+104
 1935              	.LBB521:
 1936              	.LBB517:
  63:../../DaisySP//Source/Utility/delayline.h ****         delay_ = static_cast<size_t>(int_delay) < max_size ? int_delay
 1937              		.loc 11 63 27 view .LVU562
 1938 0156 43ED037A 		vstr.32	s15, [r3, #-12]
 1939              	.LBE517:
 1940              	.LBE521:
 268:test-daisy-seed.cpp ****     melody_filter.SetRes(0.6f);
 1941              		.loc 12 268 23 view .LVU563
 1942 015a FFF7FEFF 		bl	_ZN7daisysp3Svf4InitEf
 1943              	.LVL123:
 269:test-daisy-seed.cpp **** 
 1944              		.loc 12 269 5 is_stmt 1 view .LVU564
 269:test-daisy-seed.cpp **** 
 1945              		.loc 12 269 25 is_stmt 0 view .LVU565
 1946 015e 9FED420A 		vldr.32	s0, .L53+108
 1947 0162 4048     		ldr	r0, .L53+104
 1948 0164 FFF7FEFF 		bl	_ZN7daisysp3Svf6SetResEf
 1949              	.LVL124:
 271:test-daisy-seed.cpp ****     lfo.SetWaveform(Oscillator::WAVE_SIN);
 1950              		.loc 12 271 5 is_stmt 1 view .LVU566
 271:test-daisy-seed.cpp ****     lfo.SetWaveform(Oscillator::WAVE_SIN);
 1951              		.loc 12 271 13 is_stmt 0 view .LVU567
 1952 0168 3046     		mov	r0, r6
 1953 016a B0EE480A 		vmov.f32	s0, s16
 1954 016e FFF7FEFF 		bl	_ZN7daisysp10Oscillator4InitEf
 1955              	.LVL125:
 272:test-daisy-seed.cpp ****     lfo.SetFreq(0.15f);
 1956              		.loc 12 272 5 is_stmt 1 view .LVU568
 1957              	.LBB522:
 1958              	.LBI522:
  79:../../DaisySP//Source/Synthesis/oscillator.h ****     {
 1959              		.loc 7 79 17 view .LVU569
 1960              	.LBB523:
 1961              		.loc 7 81 9 view .LVU570
 1962              	.LBE523:
 1963              	.LBE522:
 1964              	.LBB525:
 1965              	.LBB526:
  69:../../DaisySP//Source/Synthesis/oscillator.h ****         phase_inc_ = CalcPhaseInc(f);
 1966              		.loc 7 69 20 is_stmt 0 view .LVU571
 1967 0172 9FED3E0A 		vldr.32	s0, .L53+112
ARM GAS  C:\Users\louis\AppData\Local\Temp\ccZ2fpVL.s 			page 60


  70:../../DaisySP//Source/Synthesis/oscillator.h ****     }
 1968              		.loc 7 70 34 view .LVU572
 1969 0176 3046     		mov	r0, r6
 1970              	.LBE526:
 1971              	.LBE525:
 1972              	.LBB529:
 1973              	.LBB524:
 1974              		.loc 7 81 19 view .LVU573
 1975 0178 3470     		strb	r4, [r6]
 1976              	.LVL126:
 1977              		.loc 7 81 19 view .LVU574
 1978              	.LBE524:
 1979              	.LBE529:
 273:test-daisy-seed.cpp **** 
 1980              		.loc 12 273 5 is_stmt 1 view .LVU575
 1981              	.LBB530:
 1982              	.LBI525:
  67:../../DaisySP//Source/Synthesis/oscillator.h ****     {
 1983              		.loc 7 67 17 view .LVU576
 1984              	.LBB527:
  69:../../DaisySP//Source/Synthesis/oscillator.h ****         phase_inc_ = CalcPhaseInc(f);
 1985              		.loc 7 69 9 view .LVU577
  69:../../DaisySP//Source/Synthesis/oscillator.h ****         phase_inc_ = CalcPhaseInc(f);
 1986              		.loc 7 69 20 is_stmt 0 view .LVU578
 1987 017a 86ED020A 		vstr.32	s0, [r6, #8]
  70:../../DaisySP//Source/Synthesis/oscillator.h ****     }
 1988              		.loc 7 70 9 is_stmt 1 view .LVU579
  70:../../DaisySP//Source/Synthesis/oscillator.h ****     }
 1989              		.loc 7 70 34 is_stmt 0 view .LVU580
 1990 017e FFF7FEFF 		bl	_ZN7daisysp10Oscillator12CalcPhaseIncEf
 1991              	.LVL127:
 1992 0182 F0EE407A 		vmov.f32	s15, s0
 1993              	.LBE527:
 1994              	.LBE530:
 1995              		.loc 12 275 19 view .LVU581
 1996 0186 2846     		mov	r0, r5
 1997 0188 B0EE480A 		vmov.f32	s0, s16
 1998              	.LBB531:
 1999              	.LBB528:
  70:../../DaisySP//Source/Synthesis/oscillator.h ****     }
 2000              		.loc 7 70 20 view .LVU582
 2001 018c C6ED077A 		vstr.32	s15, [r6, #28]
 2002              	.LVL128:
  70:../../DaisySP//Source/Synthesis/oscillator.h ****     }
 2003              		.loc 7 70 20 view .LVU583
 2004              	.LBE528:
 2005              	.LBE531:
 2006              		.loc 12 275 5 is_stmt 1 view .LVU584
 2007              		.loc 12 275 19 is_stmt 0 view .LVU585
 2008 0190 FFF7FEFF 		bl	_ZN7daisysp10Oscillator4InitEf
 2009              	.LVL129:
 276:test-daisy-seed.cpp ****     chord_lfo.SetWaveform(Oscillator::WAVE_SIN);
 2010              		.loc 12 276 5 is_stmt 1 view .LVU586
 2011              	.LBB532:
 2012              	.LBI532:
  79:../../DaisySP//Source/Synthesis/oscillator.h ****     {
 2013              		.loc 7 79 17 view .LVU587
ARM GAS  C:\Users\louis\AppData\Local\Temp\ccZ2fpVL.s 			page 61


 2014              	.LBB533:
 2015              		.loc 7 81 9 view .LVU588
 2016              	.LBE533:
 2017              	.LBE532:
 2018              	.LBB535:
 2019              	.LBB536:
  69:../../DaisySP//Source/Synthesis/oscillator.h ****         phase_inc_ = CalcPhaseInc(f);
 2020              		.loc 7 69 20 is_stmt 0 view .LVU589
 2021 0194 9FED360A 		vldr.32	s0, .L53+116
  70:../../DaisySP//Source/Synthesis/oscillator.h ****     }
 2022              		.loc 7 70 34 view .LVU590
 2023 0198 2846     		mov	r0, r5
 2024              	.LBE536:
 2025              	.LBE535:
 2026              	.LBB539:
 2027              	.LBB534:
 2028              		.loc 7 81 19 view .LVU591
 2029 019a 2C70     		strb	r4, [r5]
 2030              	.LVL130:
 2031              		.loc 7 81 19 view .LVU592
 2032              	.LBE534:
 2033              	.LBE539:
 277:test-daisy-seed.cpp ****     chord_lfo.SetFreq(0.03f);
 2034              		.loc 12 277 5 is_stmt 1 view .LVU593
 2035              	.LBB540:
 2036              	.LBI535:
  67:../../DaisySP//Source/Synthesis/oscillator.h ****     {
 2037              		.loc 7 67 17 view .LVU594
 2038              	.LBB537:
  69:../../DaisySP//Source/Synthesis/oscillator.h ****         phase_inc_ = CalcPhaseInc(f);
 2039              		.loc 7 69 9 view .LVU595
  69:../../DaisySP//Source/Synthesis/oscillator.h ****         phase_inc_ = CalcPhaseInc(f);
 2040              		.loc 7 69 20 is_stmt 0 view .LVU596
 2041 019c 85ED020A 		vstr.32	s0, [r5, #8]
  70:../../DaisySP//Source/Synthesis/oscillator.h ****     }
 2042              		.loc 7 70 9 is_stmt 1 view .LVU597
  70:../../DaisySP//Source/Synthesis/oscillator.h ****     }
 2043              		.loc 7 70 34 is_stmt 0 view .LVU598
 2044 01a0 FFF7FEFF 		bl	_ZN7daisysp10Oscillator12CalcPhaseIncEf
 2045              	.LVL131:
 2046              	.LBE537:
 2047              	.LBE540:
 278:test-daisy-seed.cpp **** 
 279:test-daisy-seed.cpp ****     lp_filter.Init();
 280:test-daisy-seed.cpp ****     lp_filter.SetFilterMode(OnePole::FILTER_MODE_LOW_PASS);
 281:test-daisy-seed.cpp ****     lp_filter.SetFrequency(400.0f / sr);
 2048              		.loc 12 281 27 view .LVU599
 2049 01a4 9FED336A 		vldr.32	s12, .L53+120
 2050              	.LBB541:
 2051              	.LBB542:
 2052              	.LBB543:
 2053              	.LBB544:
  51:../../DaisySP//Source/Filters/onepole.h **** 
 2054              		.loc 9 51 34 view .LVU600
 2055 01a8 0023     		movs	r3, #0
 2056              	.LBE544:
 2057              	.LBE543:
ARM GAS  C:\Users\louis\AppData\Local\Temp\ccZ2fpVL.s 			page 62


 2058              	.LBE542:
 2059              	.LBE541:
 2060              	.LBB553:
 2061              	.LBB554:
  59:../../DaisySP//Source/Filters/onepole.h **** 
 2062              		.loc 9 59 30 view .LVU601
 2063 01aa 9FED337A 		vldr.32	s14, .L53+124
 2064              	.LBE554:
 2065              	.LBE553:
 2066              		.loc 12 281 27 view .LVU602
 2067 01ae C6EE087A 		vdiv.f32	s15, s12, s16
 2068              	.LBB558:
 2069              	.LBB555:
  61:../../DaisySP//Source/Filters/onepole.h ****         gi_ = 1.f / (1.f + g_);
 2070              		.loc 9 61 19 view .LVU603
 2071 01b2 DFED326A 		vldr.32	s13, .L53+128
 2072              	.LBE555:
 2073              	.LBE558:
 2074              	.LBB559:
 2075              	.LBB551:
 2076              	.LBB548:
 2077              	.LBB545:
  51:../../DaisySP//Source/Filters/onepole.h **** 
 2078              		.loc 9 51 34 view .LVU604
 2079 01b6 324E     		ldr	r6, .L53+132
 2080              	.LBE545:
 2081              	.LBE548:
 2082              	.LBE551:
 2083              	.LBE559:
 2084              	.LBB560:
 2085              	.LBB538:
  70:../../DaisySP//Source/Synthesis/oscillator.h ****     }
 2086              		.loc 7 70 20 view .LVU605
 2087 01b8 85ED070A 		vstr.32	s0, [r5, #28]
 2088              	.LVL132:
  70:../../DaisySP//Source/Synthesis/oscillator.h ****     }
 2089              		.loc 7 70 20 view .LVU606
 2090              	.LBE538:
 2091              	.LBE560:
 279:test-daisy-seed.cpp ****     lp_filter.SetFilterMode(OnePole::FILTER_MODE_LOW_PASS);
 2092              		.loc 12 279 5 is_stmt 1 view .LVU607
 2093              	.LBB561:
 2094              	.LBI541:
  44:../../DaisySP//Source/Filters/onepole.h ****     {
 2095              		.loc 9 44 10 view .LVU608
 2096              	.LBB552:
  46:../../DaisySP//Source/Filters/onepole.h ****         mode_ = FILTER_MODE_LOW_PASS;
 2097              		.loc 9 46 9 view .LVU609
 2098              	.LBB549:
 2099              	.LBI543:
  51:../../DaisySP//Source/Filters/onepole.h **** 
 2100              		.loc 9 51 17 view .LVU610
 2101              	.LBB546:
  51:../../DaisySP//Source/Filters/onepole.h **** 
 2102              		.loc 9 51 27 view .LVU611
 2103              	.LBE546:
 2104              	.LBE549:
ARM GAS  C:\Users\louis\AppData\Local\Temp\ccZ2fpVL.s 			page 63


  47:../../DaisySP//Source/Filters/onepole.h ****     }
 2105              		.loc 9 47 15 is_stmt 0 view .LVU612
 2106 01bc 3473     		strb	r4, [r6, #12]
 2107              	.LBB550:
 2108              	.LBB547:
  51:../../DaisySP//Source/Filters/onepole.h **** 
 2109              		.loc 9 51 34 view .LVU613
 2110 01be B360     		str	r3, [r6, #8]	@ float
 2111              	.LVL133:
  51:../../DaisySP//Source/Filters/onepole.h **** 
 2112              		.loc 9 51 34 view .LVU614
 2113              	.LBE547:
 2114              	.LBE550:
  47:../../DaisySP//Source/Filters/onepole.h ****     }
 2115              		.loc 9 47 9 is_stmt 1 view .LVU615
  47:../../DaisySP//Source/Filters/onepole.h ****     }
 2116              		.loc 9 47 9 is_stmt 0 view .LVU616
 2117              	.LBE552:
 2118              	.LBE561:
 280:test-daisy-seed.cpp ****     lp_filter.SetFrequency(400.0f / sr);
 2119              		.loc 12 280 5 is_stmt 1 view .LVU617
  68:../../DaisySP//Source/Filters/onepole.h **** 
 2120              		.loc 9 68 50 view .LVU618
 2121              		.loc 12 281 5 view .LVU619
 2122              	.LBB562:
 2123              	.LBI553:
  56:../../DaisySP//Source/Filters/onepole.h ****     {
 2124              		.loc 9 56 17 view .LVU620
 2125              	.LBB556:
  59:../../DaisySP//Source/Filters/onepole.h **** 
 2126              		.loc 9 59 9 view .LVU621
  59:../../DaisySP//Source/Filters/onepole.h **** 
 2127              		.loc 9 59 30 is_stmt 0 view .LVU622
 2128 01c0 F4EEC77A 		vcmpe.f32	s15, s14
 2129 01c4 F1EE10FA 		vmrs	APSR_nzcv, FPSCR
 2130 01c8 58BF     		it	pl
 2131 01ca F0EE477A 		vmovpl.f32	s15, s14
 2132              	.LVL134:
  61:../../DaisySP//Source/Filters/onepole.h ****         gi_ = 1.f / (1.f + g_);
 2133              		.loc 9 61 9 is_stmt 1 view .LVU623
  61:../../DaisySP//Source/Filters/onepole.h ****         gi_ = 1.f / (1.f + g_);
 2134              		.loc 9 61 19 is_stmt 0 view .LVU624
 2135 01ce 27EEA60A 		vmul.f32	s0, s15, s13
 2136 01d2 FFF7FEFF 		bl	tanf
 2137              	.LVL135:
  62:../../DaisySP//Source/Filters/onepole.h ****     }
 2138              		.loc 9 62 26 view .LVU625
 2139 01d6 F7EE007A 		vmov.f32	s15, #1.0e+0
 2140              	.LBE556:
 2141              	.LBE562:
 282:test-daisy-seed.cpp **** 
 283:test-daisy-seed.cpp ****     hw.StartAudio(AudioCallback);
 2142              		.loc 12 283 18 view .LVU626
 2143 01da 2A49     		ldr	r1, .L53+136
 2144 01dc 0748     		ldr	r0, .L53
 2145              	.LBB563:
 2146              	.LBB557:
ARM GAS  C:\Users\louis\AppData\Local\Temp\ccZ2fpVL.s 			page 64


  62:../../DaisySP//Source/Filters/onepole.h ****     }
 2147              		.loc 9 62 26 view .LVU627
 2148 01de 70EE276A 		vadd.f32	s13, s0, s15
  61:../../DaisySP//Source/Filters/onepole.h ****         gi_ = 1.f / (1.f + g_);
 2149              		.loc 9 61 13 view .LVU628
 2150 01e2 86ED000A 		vstr.32	s0, [r6]
  62:../../DaisySP//Source/Filters/onepole.h ****     }
 2151              		.loc 9 62 9 is_stmt 1 view .LVU629
  62:../../DaisySP//Source/Filters/onepole.h ****     }
 2152              		.loc 9 62 19 is_stmt 0 view .LVU630
 2153 01e6 87EEA67A 		vdiv.f32	s14, s15, s13
  62:../../DaisySP//Source/Filters/onepole.h ****     }
 2154              		.loc 9 62 13 view .LVU631
 2155 01ea 86ED017A 		vstr.32	s14, [r6, #4]
 2156              	.LVL136:
  62:../../DaisySP//Source/Filters/onepole.h ****     }
 2157              		.loc 9 62 13 view .LVU632
 2158              	.LBE557:
 2159              	.LBE563:
 2160              		.loc 12 283 5 is_stmt 1 view .LVU633
 2161              		.loc 12 283 18 is_stmt 0 view .LVU634
 2162 01ee FFF7FEFF 		bl	_ZN5daisy9DaisySeed10StartAudioEPFvPKfPfjE
 2163              	.LVL137:
 2164              	.L51:
 284:test-daisy-seed.cpp **** 
 285:test-daisy-seed.cpp ****     while(1)
 2165              		.loc 12 285 5 is_stmt 1 discriminator 1 view .LVU635
 286:test-daisy-seed.cpp ****     {
 287:test-daisy-seed.cpp ****         System::Delay(1000);
 2166              		.loc 12 287 9 discriminator 1 view .LVU636
 2167              		.loc 12 287 22 is_stmt 0 discriminator 1 view .LVU637
 2168 01f2 4FF47A70 		mov	r0, #1000
 2169 01f6 FFF7FEFF 		bl	_ZN5daisy6System5DelayEm
 2170              	.LVL138:
 285:test-daisy-seed.cpp ****     {
 2171              		.loc 12 285 5 is_stmt 1 discriminator 1 view .LVU638
 2172 01fa FAE7     		b	.L51
 2173              	.L54:
 2174              		.align	2
 2175              	.L53:
 2176 01fc 00000000 		.word	.LANCHOR28
 2177 0200 00000000 		.word	.LANCHOR0
 2178 0204 00000000 		.word	.LANCHOR1
 2179 0208 00000000 		.word	.LANCHOR9
 2180 020c 00000000 		.word	.LANCHOR21
 2181 0210 00000000 		.word	.LANCHOR25
 2182 0214 00000000 		.word	.LANCHOR27
 2183 0218 00000000 		.word	.LANCHOR8
 2184 021c 00004040 		.word	1077936128
 2185 0220 00000000 		.word	.LANCHOR10
 2186 0224 00000000 		.word	.LANCHOR11
 2187 0228 00000000 		.word	.LANCHOR15
 2188 022c 0000C040 		.word	1086324736
 2189 0230 00000000 		.word	.LANCHOR14
 2190 0234 00000000 		.word	.LANCHOR16
 2191 0238 6F12833A 		.word	981668463
 2192 023c 00000000 		.word	.LANCHOR17
ARM GAS  C:\Users\louis\AppData\Local\Temp\ccZ2fpVL.s 			page 65


 2193 0240 00000000 		.word	.LANCHOR18
 2194 0244 0000FA45 		.word	1174011904
 2195 0248 3333333F 		.word	1060320051
 2196 024c 0C000000 		.word	delay_line+12
 2197 0250 0AD7A33D 		.word	1034147594
 2198 0254 00EE0200 		.word	192000
 2199 0258 3333B33E 		.word	1051931443
 2200 025c 00000000 		.word	.LANCHOR2
 2201 0260 00000000 		.word	.LANCHOR12
 2202 0264 00000000 		.word	.LANCHOR3
 2203 0268 9A99193F 		.word	1058642330
 2204 026c 9A99193E 		.word	1041865114
 2205 0270 8FC2F53C 		.word	1022739087
 2206 0274 0000C843 		.word	1137180672
 2207 0278 C976FE3E 		.word	1056863945
 2208 027c DB0F4940 		.word	1078530011
 2209 0280 00000000 		.word	.LANCHOR19
 2210 0284 00000000 		.word	_Z13AudioCallbackPKfPfj
 2211              		.cfi_endproc
 2212              	.LFE4682:
 2214              		.section	.text.startup._GLOBAL__sub_I_note_counter,"ax",%progbits
 2215              		.align	1
 2216              		.p2align 2,,3
 2217              		.syntax unified
 2218              		.thumb
 2219              		.thumb_func
 2220              		.fpu fpv5-d16
 2222              	_GLOBAL__sub_I_note_counter:
 2223              	.LFB5256:
 288:test-daisy-seed.cpp ****     }
 289:test-daisy-seed.cpp **** }...
 2224              		.loc 12 289 1 view -0
 2225              		.cfi_startproc
 2226              		@ args = 0, pretend = 0, frame = 0
 2227              		@ frame_needed = 0, uses_anonymous_args = 0
 2228              	.LBB617:
 2229              	.LBI617:
 2230              		.loc 12 289 1 view .LVU640
 2231              	.LVL139:
 2232              	.LBB618:
 2233              	.LBB619:
 2234              	.LBI619:
  21:../../libDaisy//src/daisy_seed.h ****     ~DaisySeed() {}
 2235              		.loc 1 21 5 view .LVU641
 2236              	.LBB620:
 2237              	.LBB621:
 2238              	.LBI621:
 2239              		.file 13 "../../libDaisy//src/per/qspi.h"
   1:../../libDaisy//src/per/qspi.h **** #ifndef DSY_QSPI
   2:../../libDaisy//src/per/qspi.h **** #define DSY_QSPI /**< Macro */
   3:../../libDaisy//src/per/qspi.h **** 
   4:../../libDaisy//src/per/qspi.h **** #ifndef UNIT_TEST // for unit tests, a dummy implementation
   5:../../libDaisy//src/per/qspi.h **** 
   6:../../libDaisy//src/per/qspi.h **** #include <cstdint>
   7:../../libDaisy//src/per/qspi.h **** #include "daisy_core.h" // Added for dsy_gpio_pin typedef
   8:../../libDaisy//src/per/qspi.h **** 
   9:../../libDaisy//src/per/qspi.h **** #define DSY_QSPI_TEXT       \
ARM GAS  C:\Users\louis\AppData\Local\Temp\ccZ2fpVL.s 			page 66


  10:../../libDaisy//src/per/qspi.h ****     __attribute__((section( \
  11:../../libDaisy//src/per/qspi.h ****         ".qspiflash_text"))) /**< used for reading memory in memory_mapped mode. */
  12:../../libDaisy//src/per/qspi.h **** #define DSY_QSPI_DATA       \
  13:../../libDaisy//src/per/qspi.h ****     __attribute__((section( \
  14:../../libDaisy//src/per/qspi.h ****         ".qspiflash_data"))) /**< used for reading memory in memory_mapped mode. */
  15:../../libDaisy//src/per/qspi.h **** #define DSY_QSPI_BSS        \
  16:../../libDaisy//src/per/qspi.h ****     __attribute__((section( \
  17:../../libDaisy//src/per/qspi.h ****         ".qspiflash_bss"))) /**< used for reading memory in memory_mapped mode. */
  18:../../libDaisy//src/per/qspi.h **** 
  19:../../libDaisy//src/per/qspi.h **** namespace daisy
  20:../../libDaisy//src/per/qspi.h **** {
  21:../../libDaisy//src/per/qspi.h **** /** @addtogroup serial
  22:../../libDaisy//src/per/qspi.h **** @{
  23:../../libDaisy//src/per/qspi.h **** */
  24:../../libDaisy//src/per/qspi.h **** 
  25:../../libDaisy//src/per/qspi.h **** /** 
  26:../../libDaisy//src/per/qspi.h ****  Driver for QSPI peripheral to interface with external flash memory. \n 
  27:../../libDaisy//src/per/qspi.h ****     Currently supported QSPI Devices: \n 
  28:../../libDaisy//src/per/qspi.h ****     * IS25LP080D
  29:../../libDaisy//src/per/qspi.h **** */
  30:../../libDaisy//src/per/qspi.h **** class QSPIHandle
  31:../../libDaisy//src/per/qspi.h **** {
  32:../../libDaisy//src/per/qspi.h ****   public:
  33:../../libDaisy//src/per/qspi.h ****     enum Result
  34:../../libDaisy//src/per/qspi.h ****     {
  35:../../libDaisy//src/per/qspi.h ****         OK = 0,
  36:../../libDaisy//src/per/qspi.h ****         ERR
  37:../../libDaisy//src/per/qspi.h ****     };
  38:../../libDaisy//src/per/qspi.h **** 
  39:../../libDaisy//src/per/qspi.h ****     /** Indicates the current status of the module. 
  40:../../libDaisy//src/per/qspi.h ****          *  Warnings are indicated by a leading W.
  41:../../libDaisy//src/per/qspi.h ****          *  Errors are indicated by a leading E and cause an immediate exit.
  42:../../libDaisy//src/per/qspi.h ****          * 
  43:../../libDaisy//src/per/qspi.h ****          *  \param GOOD - No errors have been reported.
  44:../../libDaisy//src/per/qspi.h ****          *  \param E_HAL_ERROR - HAL code did not return HAL_OK.
  45:../../libDaisy//src/per/qspi.h ****          *  \param E_SWITCHING_MODES - An error was encountered while switching QSPI peripheral mod
  46:../../libDaisy//src/per/qspi.h ****          *  \param E_INVALID_MODE - QSPI should not be written to while the program is executing fr
  47:../../libDaisy//src/per/qspi.h ****          */
  48:../../libDaisy//src/per/qspi.h ****     enum Status
  49:../../libDaisy//src/per/qspi.h ****     {
  50:../../libDaisy//src/per/qspi.h ****         GOOD = 0,
  51:../../libDaisy//src/per/qspi.h ****         E_HAL_ERROR,
  52:../../libDaisy//src/per/qspi.h ****         E_SWITCHING_MODES,
  53:../../libDaisy//src/per/qspi.h ****         E_INVALID_MODE,
  54:../../libDaisy//src/per/qspi.h ****     };
  55:../../libDaisy//src/per/qspi.h **** 
  56:../../libDaisy//src/per/qspi.h ****     /** Configuration structure for interfacing with QSPI Driver */
  57:../../libDaisy//src/per/qspi.h ****     struct Config
  58:../../libDaisy//src/per/qspi.h ****     {
  59:../../libDaisy//src/per/qspi.h ****         /** Flash Devices supported. (Both of these are more-or-less the same, just different sizes
  60:../../libDaisy//src/per/qspi.h ****         enum Device
  61:../../libDaisy//src/per/qspi.h ****         {
  62:../../libDaisy//src/per/qspi.h ****             IS25LP080D,  /**< & */
  63:../../libDaisy//src/per/qspi.h ****             IS25LP064A,  /**< & */
  64:../../libDaisy//src/per/qspi.h ****             DEVICE_LAST, /**< & */
  65:../../libDaisy//src/per/qspi.h ****         };
  66:../../libDaisy//src/per/qspi.h **** 
ARM GAS  C:\Users\louis\AppData\Local\Temp\ccZ2fpVL.s 			page 67


  67:../../libDaisy//src/per/qspi.h ****         /** 
  68:../../libDaisy//src/per/qspi.h ****         Modes of operation.
  69:../../libDaisy//src/per/qspi.h ****         Memory Mapped mode: QSPI configured so that the QSPI can be
  70:../../libDaisy//src/per/qspi.h ****         read from starting address 0x90000000. Writing is not
  71:../../libDaisy//src/per/qspi.h ****         possible in this mode. \n 
  72:../../libDaisy//src/per/qspi.h ****         Indirect Polling mode: Device driver enabled. 
  73:../../libDaisy//src/per/qspi.h ****         */
  74:../../libDaisy//src/per/qspi.h ****         enum Mode
  75:../../libDaisy//src/per/qspi.h ****         {
  76:../../libDaisy//src/per/qspi.h ****             MEMORY_MAPPED,    /**< & */
  77:../../libDaisy//src/per/qspi.h ****             INDIRECT_POLLING, /**< & */
  78:../../libDaisy//src/per/qspi.h ****             MODE_LAST,
  79:../../libDaisy//src/per/qspi.h ****         };
  80:../../libDaisy//src/per/qspi.h **** 
  81:../../libDaisy//src/per/qspi.h ****         //SCK,  CE# (active low)
  82:../../libDaisy//src/per/qspi.h ****         struct
  83:../../libDaisy//src/per/qspi.h ****         {
  84:../../libDaisy//src/per/qspi.h ****             dsy_gpio_pin io0; /**< & */
  85:../../libDaisy//src/per/qspi.h ****             dsy_gpio_pin io1; /**< & */
  86:../../libDaisy//src/per/qspi.h ****             dsy_gpio_pin io2; /**< & */
  87:../../libDaisy//src/per/qspi.h ****             dsy_gpio_pin io3; /**< & */
  88:../../libDaisy//src/per/qspi.h ****             dsy_gpio_pin clk; /**< & */
  89:../../libDaisy//src/per/qspi.h ****             dsy_gpio_pin ncs; /**< & */
  90:../../libDaisy//src/per/qspi.h ****         } pin_config;
  91:../../libDaisy//src/per/qspi.h **** 
  92:../../libDaisy//src/per/qspi.h ****         Device device;
  93:../../libDaisy//src/per/qspi.h ****         Mode   mode;
  94:../../libDaisy//src/per/qspi.h ****     };
  95:../../libDaisy//src/per/qspi.h **** 
  96:../../libDaisy//src/per/qspi.h ****     /** 
  97:../../libDaisy//src/per/qspi.h ****         Initializes QSPI peripheral, and Resets, and prepares memory for access.
  98:../../libDaisy//src/per/qspi.h ****         \param config should be populated with the mode, device and pin_config before calling this 
  99:../../libDaisy//src/per/qspi.h ****         \return Result::OK or Result::ERR
 100:../../libDaisy//src/per/qspi.h ****         */
 101:../../libDaisy//src/per/qspi.h ****     Result Init(const Config& config);
 102:../../libDaisy//src/per/qspi.h **** 
 103:../../libDaisy//src/per/qspi.h ****     /** Returns the current config. */
 104:../../libDaisy//src/per/qspi.h ****     const Config& GetConfig() const;
 105:../../libDaisy//src/per/qspi.h **** 
 106:../../libDaisy//src/per/qspi.h ****     // Couldn't this just be called before anything else in init? That
 107:../../libDaisy//src/per/qspi.h ****     // would make manually calling it unnecessary.
 108:../../libDaisy//src/per/qspi.h ****     /** 
 109:../../libDaisy//src/per/qspi.h ****         Deinitializes the peripheral
 110:../../libDaisy//src/per/qspi.h ****         This should be called before reinitializing QSPI in a different mode.
 111:../../libDaisy//src/per/qspi.h ****         \return Result::OK or Result::ERR
 112:../../libDaisy//src/per/qspi.h ****         */
 113:../../libDaisy//src/per/qspi.h ****     Result DeInit();
 114:../../libDaisy//src/per/qspi.h **** 
 115:../../libDaisy//src/per/qspi.h ****     /** 
 116:../../libDaisy//src/per/qspi.h ****         Writes a single page to to the specified address on the QSPI chip.
 117:../../libDaisy//src/per/qspi.h ****         For IS25LP*, page size is 256 bytes.
 118:../../libDaisy//src/per/qspi.h ****         \param address Address to write to
 119:../../libDaisy//src/per/qspi.h ****         \param size Buffer size
 120:../../libDaisy//src/per/qspi.h ****         \param buffer Buffer to write
 121:../../libDaisy//src/per/qspi.h ****         \return Result::OK or Result::ERR
 122:../../libDaisy//src/per/qspi.h ****         */
 123:../../libDaisy//src/per/qspi.h ****     Result WritePage(uint32_t address, uint32_t size, uint8_t* buffer);
ARM GAS  C:\Users\louis\AppData\Local\Temp\ccZ2fpVL.s 			page 68


 124:../../libDaisy//src/per/qspi.h **** 
 125:../../libDaisy//src/per/qspi.h ****     /** 
 126:../../libDaisy//src/per/qspi.h ****         Writes data in buffer to to the QSPI. Starting at address to address+size 
 127:../../libDaisy//src/per/qspi.h ****         \param address Address to write to
 128:../../libDaisy//src/per/qspi.h ****         \param size Buffer size
 129:../../libDaisy//src/per/qspi.h ****         \param buffer Buffer to write
 130:../../libDaisy//src/per/qspi.h ****         \return Result::OK or Result::ERR
 131:../../libDaisy//src/per/qspi.h ****         */
 132:../../libDaisy//src/per/qspi.h ****     Result Write(uint32_t address, uint32_t size, uint8_t* buffer);
 133:../../libDaisy//src/per/qspi.h **** 
 134:../../libDaisy//src/per/qspi.h ****     /** 
 135:../../libDaisy//src/per/qspi.h ****         Erases the area specified on the chip.
 136:../../libDaisy//src/per/qspi.h ****         Erasures will happen by 4K, 32K or 64K increments.
 137:../../libDaisy//src/per/qspi.h ****         Smallest erase possible is 4kB at a time. (on IS25LP*)
 138:../../libDaisy//src/per/qspi.h ****         \param start_addr Address to begin erasing from
 139:../../libDaisy//src/per/qspi.h ****         \param end_addr  Address to stop erasing at
 140:../../libDaisy//src/per/qspi.h ****         \return Result::OK or Result::ERR
 141:../../libDaisy//src/per/qspi.h ****         */
 142:../../libDaisy//src/per/qspi.h ****     Result Erase(uint32_t start_addr, uint32_t end_addr);
 143:../../libDaisy//src/per/qspi.h **** 
 144:../../libDaisy//src/per/qspi.h ****     /**  
 145:../../libDaisy//src/per/qspi.h ****          Erases a single sector of the chip.  
 146:../../libDaisy//src/per/qspi.h ****         TODO: Document the size of this function. 
 147:../../libDaisy//src/per/qspi.h ****         \param address Address of sector to erase
 148:../../libDaisy//src/per/qspi.h ****         \return Result::OK or Result::ERR
 149:../../libDaisy//src/per/qspi.h ****         */
 150:../../libDaisy//src/per/qspi.h ****     Result EraseSector(uint32_t address);
 151:../../libDaisy//src/per/qspi.h **** 
 152:../../libDaisy//src/per/qspi.h ****     /** Returns the current class status. Useful for debugging.
 153:../../libDaisy//src/per/qspi.h ****      *  \returns Status
 154:../../libDaisy//src/per/qspi.h ****      */
 155:../../libDaisy//src/per/qspi.h ****     Status GetStatus();
 156:../../libDaisy//src/per/qspi.h **** 
 157:../../libDaisy//src/per/qspi.h ****     /** Returns a pointer to the actual memory used 
 158:../../libDaisy//src/per/qspi.h ****      *  The memory at this address is read-only
 159:../../libDaisy//src/per/qspi.h ****      *  to write to it use the Write function.
 160:../../libDaisy//src/per/qspi.h ****      * 
 161:../../libDaisy//src/per/qspi.h ****      *  \param offset returns the pointer starting this 
 162:../../libDaisy//src/per/qspi.h ****      *                many bytes into the memory
 163:../../libDaisy//src/per/qspi.h ****     */
 164:../../libDaisy//src/per/qspi.h ****     void* GetData(uint32_t offset = 0);
 165:../../libDaisy//src/per/qspi.h **** 
 166:../../libDaisy//src/per/qspi.h ****     QSPIHandle() : pimpl_(nullptr) {}
 2240              		.loc 13 166 5 view .LVU642
 2241              	.LBE621:
 2242              	.LBE620:
 2243              	.LBE619:
 2244              	.LBE618:
 2245              	.LBE617:
 2246              		.loc 12 289 1 is_stmt 0 view .LVU643
 2247 0000 F8B5     		push	{r3, r4, r5, r6, r7, lr}
 2248              		.cfi_def_cfa_offset 24
 2249              		.cfi_offset 3, -24
 2250              		.cfi_offset 4, -20
 2251              		.cfi_offset 5, -16
 2252              		.cfi_offset 6, -12
 2253              		.cfi_offset 7, -8
ARM GAS  C:\Users\louis\AppData\Local\Temp\ccZ2fpVL.s 			page 69


 2254              		.cfi_offset 14, -4
 2255              	.LBB665:
 2256              	.LBB663:
 2257              	.LBB644:
 2258              	.LBB641:
 2259              	.LBB626:
 2260              	.LBB622:
 2261              	.LBB623:
 2262              		.loc 13 166 34 view .LVU644
 2263 0002 3048     		ldr	r0, .L57
 2264 0004 0023     		movs	r3, #0
 2265              	.LBE623:
 2266              	.LBE622:
 2267              	.LBE626:
 2268              	.LBE641:
 2269              	.LBE644:
  30:test-daisy-seed.cpp **** DaisySeed hw;
 2270              		.loc 12 30 11 view .LVU645
 2271 0006 304C     		ldr	r4, .L57+4
 2272              	.LBB645:
 2273              	.LBB642:
 2274              	.LBB627:
 2275              	.LBB625:
 2276              	.LBB624:
 2277              		.loc 13 166 34 view .LVU646
 2278 0008 0360     		str	r3, [r0]
 2279              	.LVL140:
 2280              		.loc 13 166 34 view .LVU647
 2281              	.LBE624:
 2282              	.LBE625:
 2283              	.LBE627:
 2284              	.LBB628:
 2285              	.LBI628:
  95:../../libDaisy//src/hid/audio.h ****     ~AudioHandle() {}
 2286              		.loc 5 95 5 is_stmt 1 view .LVU648
 2287              	.LBB629:
 2288              	.LBB630:
  95:../../libDaisy//src/hid/audio.h ****     ~AudioHandle() {}
 2289              		.loc 5 95 35 is_stmt 0 view .LVU649
 2290 000a 4361     		str	r3, [r0, #20]
 2291              	.LVL141:
  95:../../libDaisy//src/hid/audio.h ****     ~AudioHandle() {}
 2292              		.loc 5 95 35 view .LVU650
 2293              	.LBE630:
 2294              	.LBE629:
 2295              	.LBE628:
 2296              	.LBB631:
 2297              	.LBI631:
 109:../../libDaisy//src/per/adc.h ****     ~AdcHandle() {}
 2298              		.loc 4 109 5 is_stmt 1 view .LVU651
 109:../../libDaisy//src/per/adc.h ****     ~AdcHandle() {}
 2299              		.loc 4 109 5 is_stmt 0 view .LVU652
 2300              	.LBE631:
 2301              	.LBB632:
 2302              	.LBI632:
 2303              		.file 14 "../../libDaisy//src/per/dac.h"
   1:../../libDaisy//src/per/dac.h **** #pragma once
ARM GAS  C:\Users\louis\AppData\Local\Temp\ccZ2fpVL.s 			page 70


   2:../../libDaisy//src/per/dac.h **** #ifndef DSY_DAC_H
   3:../../libDaisy//src/per/dac.h **** #define DSY_DAC_H
   4:../../libDaisy//src/per/dac.h **** 
   5:../../libDaisy//src/per/dac.h **** #include "daisy_core.h"
   6:../../libDaisy//src/per/dac.h **** 
   7:../../libDaisy//src/per/dac.h **** namespace daisy
   8:../../libDaisy//src/per/dac.h **** {
   9:../../libDaisy//src/per/dac.h **** /** @brief DAC handle for Built-in DAC Peripheral 
  10:../../libDaisy//src/per/dac.h ****  *  @ingroup per_analog
  11:../../libDaisy//src/per/dac.h ****  ** 
  12:../../libDaisy//src/per/dac.h ****  ** For now only Normal Mode is supported,
  13:../../libDaisy//src/per/dac.h ****  ** Sample and hold mode provides reduced power consumption, but requires a bit more setup.
  14:../../libDaisy//src/per/dac.h ****  **
  15:../../libDaisy//src/per/dac.h ****  ** For now connecting the DAC through other internal peripherals is also not supported.
  16:../../libDaisy//src/per/dac.h ****  **
  17:../../libDaisy//src/per/dac.h ****  ** Since the DAC channels have dedicated pins we don't need to pass in a pin config like with
  18:../../libDaisy//src/per/dac.h ****  ** other modules. However, it is still important to not try to use the DAC pins for anything else.
  19:../../libDaisy//src/per/dac.h ****  ** DAC Channel 1 is on PA4, and DAC Channel 2 is on PA5
  20:../../libDaisy//src/per/dac.h ****  ***/
  21:../../libDaisy//src/per/dac.h **** class DacHandle
  22:../../libDaisy//src/per/dac.h **** {
  23:../../libDaisy//src/per/dac.h ****   public:
  24:../../libDaisy//src/per/dac.h ****     /** Return Values for the DacHandle class */
  25:../../libDaisy//src/per/dac.h ****     enum class Result
  26:../../libDaisy//src/per/dac.h ****     {
  27:../../libDaisy//src/per/dac.h ****         OK,
  28:../../libDaisy//src/per/dac.h ****         ERR,
  29:../../libDaisy//src/per/dac.h ****     };
  30:../../libDaisy//src/per/dac.h **** 
  31:../../libDaisy//src/per/dac.h ****     /** Selects which channel(s) will be configured for use. */
  32:../../libDaisy//src/per/dac.h ****     enum class Channel
  33:../../libDaisy//src/per/dac.h ****     {
  34:../../libDaisy//src/per/dac.h ****         ONE,
  35:../../libDaisy//src/per/dac.h ****         TWO,
  36:../../libDaisy//src/per/dac.h ****         BOTH,
  37:../../libDaisy//src/per/dac.h ****     };
  38:../../libDaisy//src/per/dac.h **** 
  39:../../libDaisy//src/per/dac.h ****     /** Sets the Mode for the DAC channels.
  40:../../libDaisy//src/per/dac.h ****      **
  41:../../libDaisy//src/per/dac.h ****      ** Polling mode uses the blocking mode to transmit a single value at a time.
  42:../../libDaisy//src/per/dac.h ****      **
  43:../../libDaisy//src/per/dac.h ****      ** DMA mode uses a buffer, and periodically transmits it triggering a 
  44:../../libDaisy//src/per/dac.h ****      ** callback to fill the buffer when it is ready for more samples.
  45:../../libDaisy//src/per/dac.h ****      ***/
  46:../../libDaisy//src/per/dac.h ****     enum class Mode
  47:../../libDaisy//src/per/dac.h ****     {
  48:../../libDaisy//src/per/dac.h ****         POLLING,
  49:../../libDaisy//src/per/dac.h ****         DMA,
  50:../../libDaisy//src/per/dac.h ****     };
  51:../../libDaisy//src/per/dac.h **** 
  52:../../libDaisy//src/per/dac.h ****     /** Sets the number of bits per sample transmitted out of the DAC.
  53:../../libDaisy//src/per/dac.h ****      ** The output range will be: 0V - VDDA
  54:../../libDaisy//src/per/dac.h ****      ** The resolution will be roughly: bitdepth / (VDDA - 0V) 
  55:../../libDaisy//src/per/dac.h ****      ***/
  56:../../libDaisy//src/per/dac.h ****     enum class BitDepth
  57:../../libDaisy//src/per/dac.h ****     {
  58:../../libDaisy//src/per/dac.h ****         BITS_8,
ARM GAS  C:\Users\louis\AppData\Local\Temp\ccZ2fpVL.s 			page 71


  59:../../libDaisy//src/per/dac.h ****         BITS_12
  60:../../libDaisy//src/per/dac.h ****     };
  61:../../libDaisy//src/per/dac.h **** 
  62:../../libDaisy//src/per/dac.h ****     /** Sets whether the DAC output is buffered for higher drive ability. */
  63:../../libDaisy//src/per/dac.h ****     enum class BufferState
  64:../../libDaisy//src/per/dac.h ****     {
  65:../../libDaisy//src/per/dac.h ****         ENABLED,
  66:../../libDaisy//src/per/dac.h ****         DISABLED,
  67:../../libDaisy//src/per/dac.h ****     };
  68:../../libDaisy//src/per/dac.h **** 
  69:../../libDaisy//src/per/dac.h ****     /** Configuration structure for initializing the DAC structure. */
  70:../../libDaisy//src/per/dac.h ****     struct Config
  71:../../libDaisy//src/per/dac.h ****     {
  72:../../libDaisy//src/per/dac.h ****         /** Target Samplerate in Hz used to configure the internal 
  73:../../libDaisy//src/per/dac.h ****          ** timebase for DMA mode. Does nothing in POLLING mode.
  74:../../libDaisy//src/per/dac.h ****          ** If the value is 0 at Init time this will default to 48000Hz 
  75:../../libDaisy//src/per/dac.h ****          ** otherwise the driver will attempt meet the target.*/
  76:../../libDaisy//src/per/dac.h ****         uint32_t target_samplerate;
  77:../../libDaisy//src/per/dac.h **** 
  78:../../libDaisy//src/per/dac.h ****         Channel     chn;
  79:../../libDaisy//src/per/dac.h ****         Mode        mode;
  80:../../libDaisy//src/per/dac.h ****         BitDepth    bitdepth;
  81:../../libDaisy//src/per/dac.h ****         BufferState buff_state;
  82:../../libDaisy//src/per/dac.h ****     };
  83:../../libDaisy//src/per/dac.h **** 
  84:../../libDaisy//src/per/dac.h ****     DacHandle() : pimpl_(nullptr) {}
 2304              		.loc 14 84 5 is_stmt 1 view .LVU653
 2305              	.LBE632:
 2306              	.LBE642:
 2307              	.LBE645:
  30:test-daisy-seed.cpp **** DaisySeed hw;
 2308              		.loc 12 30 11 is_stmt 0 view .LVU654
 2309 000c 2246     		mov	r2, r4
 2310              	.LBB646:
 2311              	.LBB643:
 2312              	.LBB635:
 2313              	.LBB633:
 2314              	.LBB634:
 2315              		.loc 14 84 33 view .LVU655
 2316 000e 0362     		str	r3, [r0, #32]
 2317              	.LVL142:
 2318              		.loc 14 84 33 view .LVU656
 2319              	.LBE634:
 2320              	.LBE633:
 2321              	.LBE635:
 2322              	.LBB636:
 2323              	.LBI636:
  40:../../libDaisy//src/hid/usb.h **** 
 2324              		.loc 3 40 5 is_stmt 1 view .LVU657
  40:../../libDaisy//src/hid/usb.h **** 
 2325              		.loc 3 40 5 is_stmt 0 view .LVU658
 2326              	.LBE636:
 2327              	.LBB637:
 2328              	.LBI637:
  96:../../libDaisy//src/sys/system.h ****     ~System() {}
 2329              		.loc 2 96 5 is_stmt 1 view .LVU659
  96:../../libDaisy//src/sys/system.h ****     ~System() {}
ARM GAS  C:\Users\louis\AppData\Local\Temp\ccZ2fpVL.s 			page 72


 2330              		.loc 2 96 5 is_stmt 0 view .LVU660
 2331              	.LBE637:
 2332              	.LBB638:
 2333              	.LBI638:
 2334              		.file 15 "../../libDaisy//src/per/sai.h"
   1:../../libDaisy//src/per/sai.h **** #pragma once
   2:../../libDaisy//src/per/sai.h **** #ifndef DSY_SAI_H
   3:../../libDaisy//src/per/sai.h **** #define DSY_SAI_H
   4:../../libDaisy//src/per/sai.h **** 
   5:../../libDaisy//src/per/sai.h **** #include "daisy_core.h"
   6:../../libDaisy//src/per/sai.h **** 
   7:../../libDaisy//src/per/sai.h **** namespace daisy
   8:../../libDaisy//src/per/sai.h **** {
   9:../../libDaisy//src/per/sai.h **** /** 
  10:../../libDaisy//src/per/sai.h ****  * Support for I2S Audio Protocol with different bit-depth, samplerate options
  11:../../libDaisy//src/per/sai.h ****  * Allows for master or slave, as well as freedom of selecting direction, 
  12:../../libDaisy//src/per/sai.h ****  * and other behavior for each peripheral, and block.
  13:../../libDaisy//src/per/sai.h ****  * 
  14:../../libDaisy//src/per/sai.h ****  * DMA Transfer commands must use buffers located within non-cached memory or use cache maintenance
  15:../../libDaisy//src/per/sai.h ****  * To declare an unitialized global element in the DMA memory section:
  16:../../libDaisy//src/per/sai.h ****  *    int32_t DSY_DMA_BUFFER_SECTOR my_buffer[96];
  17:../../libDaisy//src/per/sai.h ****  *
  18:../../libDaisy//src/per/sai.h ****  * Callback functions will be called once per half of the buffer. In the above example, 
  19:../../libDaisy//src/per/sai.h ****  * the callback function would be called once for every 48 samples.
  20:../../libDaisy//src/per/sai.h ****  * 
  21:../../libDaisy//src/per/sai.h ****  * Use SAI Handle like this:
  22:../../libDaisy//src/per/sai.h ****  * 
  23:../../libDaisy//src/per/sai.h ****  *  SaiHandle::Config sai_config;
  24:../../libDaisy//src/per/sai.h ****  *  sai_config.periph          = SaiHandle::Config::Peripheral::SAI_1;
  25:../../libDaisy//src/per/sai.h ****  *  sai_config.sr              = SaiHandle::Config::SampleRate::SAI_48KHZ;
  26:../../libDaisy//src/per/sai.h ****  *  sai_config.bit_depth       = SaiHandle::Config::BitDepth::SAI_24BIT;
  27:../../libDaisy//src/per/sai.h ****  *  sai_config.a_sync          = SaiHandle::Config::Sync::MASTER;
  28:../../libDaisy//src/per/sai.h ****  *  sai_config.b_sync          = SaiHandle::Config::Sync::SLAVE;
  29:../../libDaisy//src/per/sai.h ****  *  sai_config.a_dir           = SaiHandle::Config::Direction::RECEIVE;
  30:../../libDaisy//src/per/sai.h ****  *  sai_config.b_dir           = SaiHandle::Config::Direction::TRANSMIT;
  31:../../libDaisy//src/per/sai.h ****  *  sai_config.pin_config.fs   = {DSY_GPIOE, 4};
  32:../../libDaisy//src/per/sai.h ****  *  sai_config.pin_config.mclk = {DSY_GPIOE, 2};
  33:../../libDaisy//src/per/sai.h ****  *  sai_config.pin_config.sck  = {DSY_GPIOE, 5};
  34:../../libDaisy//src/per/sai.h ****  *  sai_config.pin_config.sa   = {DSY_GPIOE, 6};
  35:../../libDaisy//src/per/sai.h ****  *  sai_config.pin_config.sb   = {DSY_GPIOE, 3};
  36:../../libDaisy//src/per/sai.h ****  *  // Then Initialize
  37:../../libDaisy//src/per/sai.h ****  *  SaiHandle sai;
  38:../../libDaisy//src/per/sai.h ****  *  sai.Init(sai_config);
  39:../../libDaisy//src/per/sai.h ****  *  // Now you can use it:
  40:../../libDaisy//src/per/sai.h ****  *  sai.StartDma(. . .);
  41:../../libDaisy//src/per/sai.h ****  */
  42:../../libDaisy//src/per/sai.h **** class SaiHandle
  43:../../libDaisy//src/per/sai.h **** {
  44:../../libDaisy//src/per/sai.h ****   public:
  45:../../libDaisy//src/per/sai.h ****     /** Contains settings for initialising an SAI Interface */
  46:../../libDaisy//src/per/sai.h ****     struct Config
  47:../../libDaisy//src/per/sai.h ****     {
  48:../../libDaisy//src/per/sai.h ****         /** Specifies the internal peripheral to use (mapped to different hardware pins) */
  49:../../libDaisy//src/per/sai.h ****         enum class Peripheral
  50:../../libDaisy//src/per/sai.h ****         {
  51:../../libDaisy//src/per/sai.h ****             SAI_1,
  52:../../libDaisy//src/per/sai.h ****             SAI_2,
ARM GAS  C:\Users\louis\AppData\Local\Temp\ccZ2fpVL.s 			page 73


  53:../../libDaisy//src/per/sai.h ****         };
  54:../../libDaisy//src/per/sai.h **** 
  55:../../libDaisy//src/per/sai.h ****         /** Rate at which samples will be streaming to/from the device. */
  56:../../libDaisy//src/per/sai.h ****         enum class SampleRate
  57:../../libDaisy//src/per/sai.h ****         {
  58:../../libDaisy//src/per/sai.h ****             SAI_8KHZ,
  59:../../libDaisy//src/per/sai.h ****             SAI_16KHZ,
  60:../../libDaisy//src/per/sai.h ****             SAI_32KHZ,
  61:../../libDaisy//src/per/sai.h ****             SAI_48KHZ,
  62:../../libDaisy//src/per/sai.h ****             SAI_96KHZ,
  63:../../libDaisy//src/per/sai.h ****         };
  64:../../libDaisy//src/per/sai.h **** 
  65:../../libDaisy//src/per/sai.h ****         /** Bit Depth that the hardware expects to be transferred to/from the device. */
  66:../../libDaisy//src/per/sai.h ****         enum class BitDepth
  67:../../libDaisy//src/per/sai.h ****         {
  68:../../libDaisy//src/per/sai.h ****             SAI_16BIT,
  69:../../libDaisy//src/per/sai.h ****             SAI_24BIT,
  70:../../libDaisy//src/per/sai.h ****             SAI_32BIT,
  71:../../libDaisy//src/per/sai.h ****         };
  72:../../libDaisy//src/per/sai.h **** 
  73:../../libDaisy//src/per/sai.h ****         /** Specifies whether a particular block is the master or the slave 
  74:../../libDaisy//src/per/sai.h ****          ** If both are set to slave, no MCLK signal will be used, and it is
  75:../../libDaisy//src/per/sai.h ****          ** expected that the codec will have its own xtal.
  76:../../libDaisy//src/per/sai.h ****          */
  77:../../libDaisy//src/per/sai.h ****         enum class Sync
  78:../../libDaisy//src/per/sai.h ****         {
  79:../../libDaisy//src/per/sai.h ****             MASTER,
  80:../../libDaisy//src/per/sai.h ****             SLAVE,
  81:../../libDaisy//src/per/sai.h ****         };
  82:../../libDaisy//src/per/sai.h **** 
  83:../../libDaisy//src/per/sai.h ****         /** Specifies the direction for each peripheral block. */
  84:../../libDaisy//src/per/sai.h ****         enum class Direction
  85:../../libDaisy//src/per/sai.h ****         {
  86:../../libDaisy//src/per/sai.h ****             TRANSMIT,
  87:../../libDaisy//src/per/sai.h ****             RECEIVE,
  88:../../libDaisy//src/per/sai.h ****         };
  89:../../libDaisy//src/per/sai.h **** 
  90:../../libDaisy//src/per/sai.h ****         Peripheral periph;
  91:../../libDaisy//src/per/sai.h ****         struct
  92:../../libDaisy//src/per/sai.h ****         {
  93:../../libDaisy//src/per/sai.h ****             dsy_gpio_pin mclk, fs, sck, sa, sb;
  94:../../libDaisy//src/per/sai.h ****         } pin_config;
  95:../../libDaisy//src/per/sai.h ****         SampleRate sr;
  96:../../libDaisy//src/per/sai.h ****         BitDepth   bit_depth;
  97:../../libDaisy//src/per/sai.h ****         Sync       a_sync, b_sync;
  98:../../libDaisy//src/per/sai.h ****         Direction  a_dir, b_dir;
  99:../../libDaisy//src/per/sai.h ****     };
 100:../../libDaisy//src/per/sai.h **** 
 101:../../libDaisy//src/per/sai.h ****     /** Return values for SAI functions */
 102:../../libDaisy//src/per/sai.h ****     enum class Result
 103:../../libDaisy//src/per/sai.h ****     {
 104:../../libDaisy//src/per/sai.h ****         OK,
 105:../../libDaisy//src/per/sai.h ****         ERR,
 106:../../libDaisy//src/per/sai.h ****     };
 107:../../libDaisy//src/per/sai.h **** 
 108:../../libDaisy//src/per/sai.h ****     SaiHandle() : pimpl_(nullptr) {}
 2335              		.loc 15 108 5 is_stmt 1 view .LVU661
ARM GAS  C:\Users\louis\AppData\Local\Temp\ccZ2fpVL.s 			page 74


 2336              	.LBB639:
 2337              	.LBB640:
 2338              		.loc 15 108 33 is_stmt 0 view .LVU662
 2339 0010 C363     		str	r3, [r0, #60]
 2340              	.LVL143:
 2341              		.loc 15 108 33 view .LVU663
 2342              	.LBE640:
 2343              	.LBE639:
 2344              	.LBE638:
 2345              	.LBE643:
 2346              	.LBE646:
  42:test-daisy-seed.cpp **** Svf melody_filter;
 2347              		.loc 12 42 5 view .LVU664
 2348 0012 2E4F     		ldr	r7, .L57+8
  30:test-daisy-seed.cpp **** DaisySeed hw;
 2349              		.loc 12 30 11 view .LVU665
 2350 0014 2E49     		ldr	r1, .L57+12
  45:test-daisy-seed.cpp **** Oscillator lfo;
 2351              		.loc 12 45 12 view .LVU666
 2352 0016 2F4D     		ldr	r5, .L57+16
  30:test-daisy-seed.cpp **** DaisySeed hw;
 2353              		.loc 12 30 11 view .LVU667
 2354 0018 FFF7FEFF 		bl	__aeabi_atexit
 2355              	.LVL144:
 2356              	.LBB647:
 2357              	.LBI647:
  31:../../DaisySP//Source/Utility/delayline.h ****     ~DelayLine() {}
 2358              		.loc 11 31 5 is_stmt 1 view .LVU668
  31:../../DaisySP//Source/Utility/delayline.h ****     ~DelayLine() {}
 2359              		.loc 11 31 5 is_stmt 0 view .LVU669
 2360              	.LBE647:
  37:test-daisy-seed.cpp **** DelayLine<float, 48000> delay_line;
 2361              		.loc 12 37 25 view .LVU670
 2362 001c 2246     		mov	r2, r4
 2363 001e 2E49     		ldr	r1, .L57+20
 2364 0020 2E48     		ldr	r0, .L57+24
 2365 0022 FFF7FEFF 		bl	__aeabi_atexit
 2366              	.LVL145:
 2367              	.LBB648:
 2368              	.LBI648:
  29:../../DaisySP//Source/Filters/svf.h ****     ~Svf() {}
 2369              		.loc 8 29 5 is_stmt 1 view .LVU671
  29:../../DaisySP//Source/Filters/svf.h ****     ~Svf() {}
 2370              		.loc 8 29 5 is_stmt 0 view .LVU672
 2371              	.LBE648:
  42:test-daisy-seed.cpp **** Svf melody_filter;
 2372              		.loc 12 42 5 view .LVU673
 2373 0026 2246     		mov	r2, r4
 2374 0028 3946     		mov	r1, r7
 2375 002a 2D48     		ldr	r0, .L57+28
 2376 002c FFF7FEFF 		bl	__aeabi_atexit
 2377              	.LVL146:
 2378              	.LBB649:
 2379              	.LBI649:
  23:../../DaisySP//Source/Synthesis/oscillator.h ****     ~Oscillator() {}
 2380              		.loc 7 23 5 is_stmt 1 view .LVU674
  23:../../DaisySP//Source/Synthesis/oscillator.h ****     ~Oscillator() {}
ARM GAS  C:\Users\louis\AppData\Local\Temp\ccZ2fpVL.s 			page 75


 2381              		.loc 7 23 5 is_stmt 0 view .LVU675
 2382              	.LBE649:
  45:test-daisy-seed.cpp **** Oscillator lfo;
 2383              		.loc 12 45 12 view .LVU676
 2384 0030 2246     		mov	r2, r4
 2385 0032 2946     		mov	r1, r5
 2386 0034 2B48     		ldr	r0, .L57+32
 2387 0036 FFF7FEFF 		bl	__aeabi_atexit
 2388              	.LVL147:
 2389              	.LBB650:
 2390              	.LBI650:
  23:../../DaisySP//Source/Synthesis/oscillator.h ****     ~Oscillator() {}
 2391              		.loc 7 23 5 is_stmt 1 view .LVU677
  23:../../DaisySP//Source/Synthesis/oscillator.h ****     ~Oscillator() {}
 2392              		.loc 7 23 5 is_stmt 0 view .LVU678
 2393              	.LBE650:
  48:test-daisy-seed.cpp **** Oscillator chord_lfo;
 2394              		.loc 12 48 12 view .LVU679
 2395 003a 2246     		mov	r2, r4
 2396 003c 2946     		mov	r1, r5
 2397 003e 2A48     		ldr	r0, .L57+36
  64:test-daisy-seed.cpp **** AdEnv env;
 2398              		.loc 12 64 7 view .LVU680
 2399 0040 2A4E     		ldr	r6, .L57+40
  48:test-daisy-seed.cpp **** Oscillator chord_lfo;
 2400              		.loc 12 48 12 view .LVU681
 2401 0042 FFF7FEFF 		bl	__aeabi_atexit
 2402              	.LVL148:
 2403              	.LBB651:
 2404              	.LBI651:
  29:../../DaisySP//Source/Filters/onepole.h ****     ~OnePole() {}
 2405              		.loc 9 29 5 is_stmt 1 view .LVU682
  29:../../DaisySP//Source/Filters/onepole.h ****     ~OnePole() {}
 2406              		.loc 9 29 5 is_stmt 0 view .LVU683
 2407              	.LBE651:
  52:test-daisy-seed.cpp **** OnePole lp_filter;
 2408              		.loc 12 52 9 view .LVU684
 2409 0046 2246     		mov	r2, r4
 2410 0048 2949     		ldr	r1, .L57+44
 2411 004a 2A48     		ldr	r0, .L57+48
 2412 004c FFF7FEFF 		bl	__aeabi_atexit
 2413              	.LVL149:
 2414              	.LBB652:
 2415              	.LBI652:
  23:../../DaisySP//Source/Synthesis/oscillator.h ****     ~Oscillator() {}
 2416              		.loc 7 23 5 is_stmt 1 view .LVU685
  23:../../DaisySP//Source/Synthesis/oscillator.h ****     ~Oscillator() {}
 2417              		.loc 7 23 5 is_stmt 0 view .LVU686
 2418              	.LBE652:
  63:test-daisy-seed.cpp **** Oscillator osc;
 2419              		.loc 12 63 12 view .LVU687
 2420 0050 2246     		mov	r2, r4
 2421 0052 2946     		mov	r1, r5
 2422 0054 2848     		ldr	r0, .L57+52
 2423 0056 FFF7FEFF 		bl	__aeabi_atexit
 2424              	.LVL150:
 2425              	.LBB653:
ARM GAS  C:\Users\louis\AppData\Local\Temp\ccZ2fpVL.s 			page 76


 2426              	.LBI653:
  42:../../DaisySP//Source/Control/adenv.h ****     ~AdEnv() {}
 2427              		.loc 6 42 5 is_stmt 1 view .LVU688
  42:../../DaisySP//Source/Control/adenv.h ****     ~AdEnv() {}
 2428              		.loc 6 42 5 is_stmt 0 view .LVU689
 2429              	.LBE653:
  64:test-daisy-seed.cpp **** AdEnv env;
 2430              		.loc 12 64 7 view .LVU690
 2431 005a 2246     		mov	r2, r4
 2432 005c 3146     		mov	r1, r6
 2433 005e 2748     		ldr	r0, .L57+56
 2434 0060 FFF7FEFF 		bl	__aeabi_atexit
 2435              	.LVL151:
 2436              	.LBB654:
 2437              	.LBI654:
  23:../../DaisySP//Source/Synthesis/oscillator.h ****     ~Oscillator() {}
 2438              		.loc 7 23 5 is_stmt 1 view .LVU691
  23:../../DaisySP//Source/Synthesis/oscillator.h ****     ~Oscillator() {}
 2439              		.loc 7 23 5 is_stmt 0 view .LVU692
 2440              	.LBE654:
  67:test-daisy-seed.cpp **** Oscillator chord_osc1, chord_osc2, chord_osc3;
 2441              		.loc 12 67 12 view .LVU693
 2442 0064 2246     		mov	r2, r4
 2443 0066 2946     		mov	r1, r5
 2444 0068 2548     		ldr	r0, .L57+60
 2445 006a FFF7FEFF 		bl	__aeabi_atexit
 2446              	.LVL152:
 2447              	.LBB655:
 2448              	.LBI655:
  23:../../DaisySP//Source/Synthesis/oscillator.h ****     ~Oscillator() {}
 2449              		.loc 7 23 5 is_stmt 1 view .LVU694
  23:../../DaisySP//Source/Synthesis/oscillator.h ****     ~Oscillator() {}
 2450              		.loc 7 23 5 is_stmt 0 view .LVU695
 2451              	.LBE655:
  67:test-daisy-seed.cpp **** Oscillator chord_osc1, chord_osc2, chord_osc3;
 2452              		.loc 12 67 24 view .LVU696
 2453 006e 2246     		mov	r2, r4
 2454 0070 2946     		mov	r1, r5
 2455 0072 2448     		ldr	r0, .L57+64
 2456 0074 FFF7FEFF 		bl	__aeabi_atexit
 2457              	.LVL153:
 2458              	.LBB656:
 2459              	.LBI656:
  23:../../DaisySP//Source/Synthesis/oscillator.h ****     ~Oscillator() {}
 2460              		.loc 7 23 5 is_stmt 1 view .LVU697
  23:../../DaisySP//Source/Synthesis/oscillator.h ****     ~Oscillator() {}
 2461              		.loc 7 23 5 is_stmt 0 view .LVU698
 2462              	.LBE656:
  67:test-daisy-seed.cpp **** Oscillator chord_osc1, chord_osc2, chord_osc3;
 2463              		.loc 12 67 36 view .LVU699
 2464 0078 2246     		mov	r2, r4
 2465 007a 2946     		mov	r1, r5
 2466 007c 2248     		ldr	r0, .L57+68
 2467 007e FFF7FEFF 		bl	__aeabi_atexit
 2468              	.LVL154:
 2469              	.LBB657:
 2470              	.LBI657:
ARM GAS  C:\Users\louis\AppData\Local\Temp\ccZ2fpVL.s 			page 77


  42:../../DaisySP//Source/Control/adenv.h ****     ~AdEnv() {}
 2471              		.loc 6 42 5 is_stmt 1 view .LVU700
  42:../../DaisySP//Source/Control/adenv.h ****     ~AdEnv() {}
 2472              		.loc 6 42 5 is_stmt 0 view .LVU701
 2473              	.LBE657:
  68:test-daisy-seed.cpp **** AdEnv chord_env;
 2474              		.loc 12 68 7 view .LVU702
 2475 0082 2246     		mov	r2, r4
 2476 0084 3146     		mov	r1, r6
 2477 0086 2148     		ldr	r0, .L57+72
 2478 0088 FFF7FEFF 		bl	__aeabi_atexit
 2479              	.LVL155:
 2480              	.LBB658:
 2481              	.LBI658:
  23:../../DaisySP//Source/Synthesis/oscillator.h ****     ~Oscillator() {}
 2482              		.loc 7 23 5 is_stmt 1 view .LVU703
  23:../../DaisySP//Source/Synthesis/oscillator.h ****     ~Oscillator() {}
 2483              		.loc 7 23 5 is_stmt 0 view .LVU704
 2484              	.LBE658:
  71:test-daisy-seed.cpp **** Oscillator kick_osc;
 2485              		.loc 12 71 12 view .LVU705
 2486 008c 2246     		mov	r2, r4
 2487 008e 2946     		mov	r1, r5
 2488 0090 1F48     		ldr	r0, .L57+76
 2489 0092 FFF7FEFF 		bl	__aeabi_atexit
 2490              	.LVL156:
 2491              	.LBB659:
 2492              	.LBI659:
  42:../../DaisySP//Source/Control/adenv.h ****     ~AdEnv() {}
 2493              		.loc 6 42 5 is_stmt 1 view .LVU706
  42:../../DaisySP//Source/Control/adenv.h ****     ~AdEnv() {}
 2494              		.loc 6 42 5 is_stmt 0 view .LVU707
 2495              	.LBE659:
  72:test-daisy-seed.cpp **** AdEnv kick_env;
 2496              		.loc 12 72 7 view .LVU708
 2497 0096 2246     		mov	r2, r4
 2498 0098 3146     		mov	r1, r6
 2499 009a 1E48     		ldr	r0, .L57+80
 2500 009c FFF7FEFF 		bl	__aeabi_atexit
 2501              	.LVL157:
 2502              	.LBB660:
 2503              	.LBI660:
  23:../../DaisySP//Source/Noise/whitenoise.h ****     ~WhiteNoise() {}
 2504              		.loc 10 23 5 is_stmt 1 view .LVU709
  23:../../DaisySP//Source/Noise/whitenoise.h ****     ~WhiteNoise() {}
 2505              		.loc 10 23 5 is_stmt 0 view .LVU710
 2506              	.LBE660:
  75:test-daisy-seed.cpp **** WhiteNoise noise;
 2507              		.loc 12 75 12 view .LVU711
 2508 00a0 2246     		mov	r2, r4
 2509 00a2 1D49     		ldr	r1, .L57+84
 2510 00a4 1D48     		ldr	r0, .L57+88
 2511 00a6 FFF7FEFF 		bl	__aeabi_atexit
 2512              	.LVL158:
 2513              	.LBB661:
 2514              	.LBI661:
  29:../../DaisySP//Source/Filters/svf.h ****     ~Svf() {}
ARM GAS  C:\Users\louis\AppData\Local\Temp\ccZ2fpVL.s 			page 78


 2515              		.loc 8 29 5 is_stmt 1 view .LVU712
  29:../../DaisySP//Source/Filters/svf.h ****     ~Svf() {}
 2516              		.loc 8 29 5 is_stmt 0 view .LVU713
 2517              	.LBE661:
  76:test-daisy-seed.cpp **** Svf hihat_filter;
 2518              		.loc 12 76 5 view .LVU714
 2519 00aa 2246     		mov	r2, r4
 2520 00ac 3946     		mov	r1, r7
 2521 00ae 1C48     		ldr	r0, .L57+92
 2522 00b0 FFF7FEFF 		bl	__aeabi_atexit
 2523              	.LVL159:
 2524              	.LBB662:
 2525              	.LBI662:
  42:../../DaisySP//Source/Control/adenv.h ****     ~AdEnv() {}
 2526              		.loc 6 42 5 is_stmt 1 view .LVU715
  42:../../DaisySP//Source/Control/adenv.h ****     ~AdEnv() {}
 2527              		.loc 6 42 5 is_stmt 0 view .LVU716
 2528              	.LBE662:
  77:test-daisy-seed.cpp **** AdEnv hihat_env;
 2529              		.loc 12 77 7 view .LVU717
 2530 00b4 2246     		mov	r2, r4
 2531 00b6 3146     		mov	r1, r6
 2532 00b8 1A48     		ldr	r0, .L57+96
 2533              	.LBE663:
 2534              	.LBE665:
 2535              		.loc 12 289 1 view .LVU718
 2536 00ba BDE8F840 		pop	{r3, r4, r5, r6, r7, lr}
 2537              		.cfi_restore 14
 2538              		.cfi_restore 7
 2539              		.cfi_restore 6
 2540              		.cfi_restore 5
 2541              		.cfi_restore 4
 2542              		.cfi_restore 3
 2543              		.cfi_def_cfa_offset 0
 2544              	.LBB666:
 2545              	.LBB664:
  77:test-daisy-seed.cpp **** AdEnv hihat_env;
 2546              		.loc 12 77 7 view .LVU719
 2547 00be FFF7FEBF 		b	__aeabi_atexit
 2548              	.LVL160:
 2549              	.L58:
 2550 00c2 00BF     		.align	2
 2551              	.L57:
 2552 00c4 00000000 		.word	.LANCHOR28
 2553 00c8 00000000 		.word	__dso_handle
 2554 00cc 00000000 		.word	_ZN7daisysp3SvfD1Ev
 2555 00d0 00000000 		.word	_ZN5daisy9DaisySeedD1Ev
 2556 00d4 00000000 		.word	_ZN7daisysp10OscillatorD1Ev
 2557 00d8 00000000 		.word	_ZN7daisysp9DelayLineIfLj48000EED1Ev
 2558 00dc 00000000 		.word	delay_line
 2559 00e0 00000000 		.word	.LANCHOR3
 2560 00e4 00000000 		.word	.LANCHOR2
 2561 00e8 00000000 		.word	.LANCHOR12
 2562 00ec 00000000 		.word	_ZN7daisysp5AdEnvD1Ev
 2563 00f0 00000000 		.word	_ZN7daisysp7OnePoleD1Ev
 2564 00f4 00000000 		.word	.LANCHOR19
 2565 00f8 00000000 		.word	.LANCHOR0
ARM GAS  C:\Users\louis\AppData\Local\Temp\ccZ2fpVL.s 			page 79


 2566 00fc 00000000 		.word	.LANCHOR1
 2567 0100 00000000 		.word	.LANCHOR8
 2568 0104 00000000 		.word	.LANCHOR9
 2569 0108 00000000 		.word	.LANCHOR10
 2570 010c 00000000 		.word	.LANCHOR11
 2571 0110 00000000 		.word	.LANCHOR15
 2572 0114 00000000 		.word	.LANCHOR14
 2573 0118 00000000 		.word	_ZN7daisysp10WhiteNoiseD1Ev
 2574 011c 00000000 		.word	.LANCHOR16
 2575 0120 00000000 		.word	.LANCHOR17
 2576 0124 00000000 		.word	.LANCHOR18
 2577              	.LBE664:
 2578              	.LBE666:
 2579              		.cfi_endproc
 2580              	.LFE5256:
 2582              		.section	.init_array,"aw",%init_array
 2583              		.align	2
 2584 0000 00000000 		.word	_GLOBAL__sub_I_note_counter(target1)
 2585              		.global	current_chord
 2586              		.global	chords
 2587              		.global	hihat_env
 2588              		.global	hihat_filter
 2589              		.global	noise
 2590              		.global	kick_env
 2591              		.global	kick_osc
 2592              		.global	chord_env
 2593              		.global	chord_osc3
 2594              		.global	chord_osc2
 2595              		.global	chord_osc1
 2596              		.global	env
 2597              		.global	osc
 2598              		.global	sidechain_env
 2599              		.global	sidechain_amount
 2600              		.global	lp_filter
 2601              		.global	chord_lfo_depth
 2602              		.global	chord_lfo
 2603              		.global	lfo
 2604              		.global	melody_filter
 2605              		.global	delay_mix
 2606              		.global	delay_feedback
 2607              		.global	delay_line
 2608              		.global	hw
 2609              		.global	samples_per_step
 2610              		.global	samples_per_chord
 2611              		.global	samples_per_note
 2612              		.global	drum_counter
 2613              		.global	chord_counter
 2614              		.global	note_counter
 2615              		.section	.bss.chord_counter,"aw",%nobits
 2616              		.align	2
 2617              		.set	.LANCHOR24,. + 0
 2620              	chord_counter:
 2621 0000 00000000 		.space	4
 2622              		.section	.bss.chord_env,"aw",%nobits
 2623              		.align	2
 2624              		.set	.LANCHOR11,. + 0
 2627              	chord_env:
ARM GAS  C:\Users\louis\AppData\Local\Temp\ccZ2fpVL.s 			page 80


 2628 0000 00000000 		.space	56
 2628      00000000 
 2628      00000000 
 2628      00000000 
 2628      00000000 
 2629              		.section	.bss.chord_lfo,"aw",%nobits
 2630              		.align	2
 2631              		.set	.LANCHOR12,. + 0
 2634              	chord_lfo:
 2635 0000 00000000 		.space	44
 2635      00000000 
 2635      00000000 
 2635      00000000 
 2635      00000000 
 2636              		.section	.bss.chord_osc1,"aw",%nobits
 2637              		.align	2
 2638              		.set	.LANCHOR8,. + 0
 2641              	chord_osc1:
 2642 0000 00000000 		.space	44
 2642      00000000 
 2642      00000000 
 2642      00000000 
 2642      00000000 
 2643              		.section	.bss.chord_osc2,"aw",%nobits
 2644              		.align	2
 2645              		.set	.LANCHOR9,. + 0
 2648              	chord_osc2:
 2649 0000 00000000 		.space	44
 2649      00000000 
 2649      00000000 
 2649      00000000 
 2649      00000000 
 2650              		.section	.bss.chord_osc3,"aw",%nobits
 2651              		.align	2
 2652              		.set	.LANCHOR10,. + 0
 2655              	chord_osc3:
 2656 0000 00000000 		.space	44
 2656      00000000 
 2656      00000000 
 2656      00000000 
 2656      00000000 
 2657              		.section	.bss.current_chord,"aw",%nobits
 2658              		.align	2
 2659              		.set	.LANCHOR22,. + 0
 2662              	current_chord:
 2663 0000 00000000 		.space	4
 2664              		.section	.bss.delay_line,"aw",%nobits
 2665              		.align	2
 2668              	delay_line:
 2669 0000 00000000 		.space	192012
 2669      00000000 
 2669      00000000 
 2669      00000000 
 2669      00000000 
 2670              		.section	.bss.drum_counter,"aw",%nobits
 2671              		.align	2
 2672              		.set	.LANCHOR26,. + 0
ARM GAS  C:\Users\louis\AppData\Local\Temp\ccZ2fpVL.s 			page 81


 2675              	drum_counter:
 2676 0000 00000000 		.space	4
 2677              		.section	.bss.env,"aw",%nobits
 2678              		.align	2
 2679              		.set	.LANCHOR1,. + 0
 2682              	env:
 2683 0000 00000000 		.space	56
 2683      00000000 
 2683      00000000 
 2683      00000000 
 2683      00000000 
 2684              		.section	.bss.hihat_env,"aw",%nobits
 2685              		.align	2
 2686              		.set	.LANCHOR18,. + 0
 2689              	hihat_env:
 2690 0000 00000000 		.space	56
 2690      00000000 
 2690      00000000 
 2690      00000000 
 2690      00000000 
 2691              		.section	.bss.hihat_filter,"aw",%nobits
 2692              		.align	2
 2693              		.set	.LANCHOR17,. + 0
 2696              	hihat_filter:
 2697 0000 00000000 		.space	76
 2697      00000000 
 2697      00000000 
 2697      00000000 
 2697      00000000 
 2698              		.section	.bss.hw,"aw",%nobits
 2699              		.align	2
 2700              		.set	.LANCHOR28,. + 0
 2703              	hw:
 2704 0000 00000000 		.space	64
 2704      00000000 
 2704      00000000 
 2704      00000000 
 2704      00000000 
 2705              		.section	.bss.kick_env,"aw",%nobits
 2706              		.align	2
 2707              		.set	.LANCHOR14,. + 0
 2710              	kick_env:
 2711 0000 00000000 		.space	56
 2711      00000000 
 2711      00000000 
 2711      00000000 
 2711      00000000 
 2712              		.section	.bss.kick_osc,"aw",%nobits
 2713              		.align	2
 2714              		.set	.LANCHOR15,. + 0
 2717              	kick_osc:
 2718 0000 00000000 		.space	44
 2718      00000000 
 2718      00000000 
 2718      00000000 
 2718      00000000 
 2719              		.section	.bss.lfo,"aw",%nobits
ARM GAS  C:\Users\louis\AppData\Local\Temp\ccZ2fpVL.s 			page 82


 2720              		.align	2
 2721              		.set	.LANCHOR2,. + 0
 2724              	lfo:
 2725 0000 00000000 		.space	44
 2725      00000000 
 2725      00000000 
 2725      00000000 
 2725      00000000 
 2726              		.section	.bss.lp_filter,"aw",%nobits
 2727              		.align	2
 2728              		.set	.LANCHOR19,. + 0
 2731              	lp_filter:
 2732 0000 00000000 		.space	16
 2732      00000000 
 2732      00000000 
 2732      00000000 
 2733              		.section	.bss.melody_filter,"aw",%nobits
 2734              		.align	2
 2735              		.set	.LANCHOR3,. + 0
 2738              	melody_filter:
 2739 0000 00000000 		.space	76
 2739      00000000 
 2739      00000000 
 2739      00000000 
 2739      00000000 
 2740              		.section	.bss.noise,"aw",%nobits
 2741              		.align	2
 2742              		.set	.LANCHOR16,. + 0
 2745              	noise:
 2746 0000 00000000 		.space	8
 2746      00000000 
 2747              		.section	.bss.note_counter,"aw",%nobits
 2748              		.align	2
 2749              		.set	.LANCHOR20,. + 0
 2752              	note_counter:
 2753 0000 00000000 		.space	4
 2754              		.section	.bss.osc,"aw",%nobits
 2755              		.align	2
 2756              		.set	.LANCHOR0,. + 0
 2759              	osc:
 2760 0000 00000000 		.space	44
 2760      00000000 
 2760      00000000 
 2760      00000000 
 2760      00000000 
 2761              		.section	.bss.samples_per_chord,"aw",%nobits
 2762              		.align	2
 2763              		.set	.LANCHOR25,. + 0
 2766              	samples_per_chord:
 2767 0000 00000000 		.space	4
 2768              		.section	.bss.samples_per_note,"aw",%nobits
 2769              		.align	2
 2770              		.set	.LANCHOR21,. + 0
 2773              	samples_per_note:
 2774 0000 00000000 		.space	4
 2775              		.section	.bss.samples_per_step,"aw",%nobits
 2776              		.align	2
ARM GAS  C:\Users\louis\AppData\Local\Temp\ccZ2fpVL.s 			page 83


 2777              		.set	.LANCHOR27,. + 0
 2780              	samples_per_step:
 2781 0000 00000000 		.space	4
 2782              		.section	.bss.sidechain_env,"aw",%nobits
 2783              		.align	2
 2784              		.set	.LANCHOR6,. + 0
 2787              	sidechain_env:
 2788 0000 00000000 		.space	4
 2789              		.section	.data.chord_lfo_depth,"aw"
 2790              		.align	2
 2791              		.set	.LANCHOR13,. + 0
 2794              	chord_lfo_depth:
 2795 0000 CDCCCC3E 		.word	1053609165
 2796              		.section	.data.chords,"aw"
 2797              		.align	2
 2798              		.set	.LANCHOR23,. + 0
 2801              	chords:
 2802 0000 00005C43 		.word	1130102784
 2803 0004 A4D08243 		.word	1132646564
 2804 0008 A4D0A443 		.word	1134874788
 2805 000c 03000000 		.word	3
 2806 0010 A4D08243 		.word	1132646564
 2807 0014 A4D0A443 		.word	1134874788
 2808 0018 0000C443 		.word	1136918528
 2809 001c 03000000 		.word	3
 2810 0020 00004443 		.word	1128529920
 2811 0024 A4F07643 		.word	1131868324
 2812 0028 7BD49243 		.word	1133696123
 2813 002c 03000000 		.word	3
 2814              		.section	.data.delay_feedback,"aw"
 2815              		.align	2
 2816              		.set	.LANCHOR4,. + 0
 2819              	delay_feedback:
 2820 0000 3333B33E 		.word	1051931443
 2821              		.section	.data.delay_mix,"aw"
 2822              		.align	2
 2823              		.set	.LANCHOR5,. + 0
 2826              	delay_mix:
 2827 0000 0000803E 		.word	1048576000
 2828              		.section	.data.sidechain_amount,"aw"
 2829              		.align	2
 2830              		.set	.LANCHOR7,. + 0
 2833              	sidechain_amount:
 2834 0000 9A99193F 		.word	1058642330
 2835              		.text
 2836              	.Letext0:
 2837              		.file 16 "c:\\program files\\daisytoolchain\\arm-none-eabi\\include\\machine\\_default_types.h"
 2838              		.file 17 "c:\\program files\\daisytoolchain\\arm-none-eabi\\include\\sys\\_stdint.h"
 2839              		.file 18 "c:\\program files\\daisytoolchain\\arm-none-eabi\\include\\stdint.h"
 2840              		.file 19 "c:\\program files\\daisytoolchain\\lib\\gcc\\arm-none-eabi\\10.2.1\\include\\stddef.h"
 2841              		.file 20 "c:\\program files\\daisytoolchain\\arm-none-eabi\\include\\c++\\10.2.1\\cmath"
 2842              		.file 21 "c:\\program files\\daisytoolchain\\arm-none-eabi\\include\\c++\\10.2.1\\bits\\std_abs.h"
 2843              		.file 22 "c:\\program files\\daisytoolchain\\arm-none-eabi\\include\\c++\\10.2.1\\cstdlib"
 2844              		.file 23 "c:\\program files\\daisytoolchain\\arm-none-eabi\\include\\c++\\10.2.1\\cstdint"
 2845              		.file 24 "c:\\program files\\daisytoolchain\\arm-none-eabi\\include\\c++\\10.2.1\\type_traits"
 2846              		.file 25 "c:\\program files\\daisytoolchain\\arm-none-eabi\\include\\c++\\10.2.1\\debug\\debug.h"
 2847              		.file 26 "c:\\program files\\daisytoolchain\\arm-none-eabi\\include\\c++\\10.2.1\\arm-none-eabi\\t
ARM GAS  C:\Users\louis\AppData\Local\Temp\ccZ2fpVL.s 			page 84


 2848              		.file 27 "c:\\program files\\daisytoolchain\\arm-none-eabi\\include\\c++\\10.2.1\\bits\\algorithmf
 2849              		.file 28 "c:\\program files\\daisytoolchain\\arm-none-eabi\\include\\c++\\10.2.1\\bits\\stl_pair.h
 2850              		.file 29 "c:\\program files\\daisytoolchain\\arm-none-eabi\\include\\c++\\10.2.1\\bits\\exception_
 2851              		.file 30 "c:\\program files\\daisytoolchain\\arm-none-eabi\\include\\c++\\10.2.1\\cstdarg"
 2852              		.file 31 "c:\\program files\\daisytoolchain\\arm-none-eabi\\include\\c++\\10.2.1\\cstdio"
 2853              		.file 32 "c:\\program files\\daisytoolchain\\arm-none-eabi\\include\\c++\\10.2.1\\cstring"
 2854              		.file 33 "c:\\program files\\daisytoolchain\\arm-none-eabi\\include\\c++\\10.2.1\\cwchar"
 2855              		.file 34 "c:\\program files\\daisytoolchain\\arm-none-eabi\\include\\c++\\10.2.1\\clocale"
 2856              		.file 35 "c:\\program files\\daisytoolchain\\arm-none-eabi\\include\\c++\\10.2.1\\bits\\basic_stri
 2857              		.file 36 "c:\\program files\\daisytoolchain\\arm-none-eabi\\include\\c++\\10.2.1\\bits\\stl_tempbu
 2858              		.file 37 "c:\\program files\\daisytoolchain\\arm-none-eabi\\include\\c++\\10.2.1\\bits\\predefined
 2859              		.file 38 "c:\\program files\\daisytoolchain\\arm-none-eabi\\include\\sys\\_types.h"
 2860              		.file 39 "c:\\program files\\daisytoolchain\\arm-none-eabi\\include\\sys\\reent.h"
 2861              		.file 40 "c:\\program files\\daisytoolchain\\arm-none-eabi\\include\\sys\\lock.h"
 2862              		.file 41 "c:\\program files\\daisytoolchain\\arm-none-eabi\\include\\math.h"
 2863              		.file 42 "c:\\program files\\daisytoolchain\\arm-none-eabi\\include\\stdlib.h"
 2864              		.file 43 "c:\\program files\\daisytoolchain\\arm-none-eabi\\include\\c++\\10.2.1\\math.h"
 2865              		.file 44 "c:\\program files\\daisytoolchain\\arm-none-eabi\\include\\c++\\10.2.1\\stdlib.h"
 2866              		.file 45 "../../libDaisy//src/daisy_core.h"
 2867              		.file 46 "../../libDaisy//src/per/tim.h"
 2868              		.file 47 "../../libDaisy//src/util/wav_format.h"
 2869              		.file 48 "../../libDaisy//src/dev/max11300.h"
 2870              		.file 49 "../../libDaisy//src/per/gpio.h"
 2871              		.file 50 "../../libDaisy//src/dev/sdram.h"
 2872              		.file 51 "c:\\program files\\daisytoolchain\\lib\\gcc\\arm-none-eabi\\10.2.1\\include\\stdarg.h"
 2873              		.file 52 "c:\\program files\\daisytoolchain\\arm-none-eabi\\include\\stdio.h"
 2874              		.file 53 "c:\\program files\\daisytoolchain\\arm-none-eabi\\include\\string.h"
 2875              		.file 54 "../../DaisySP//Source/Utility/dsp.h"
