ARM GAS  C:\Users\louis\AppData\Local\Temp\ccBNZUOb.s 			page 1


   1              		.cpu cortex-m7
   2              		.eabi_attribute 28, 1
   3              		.eabi_attribute 20, 1
   4              		.eabi_attribute 21, 1
   5              		.eabi_attribute 23, 3
   6              		.eabi_attribute 24, 1
   7              		.eabi_attribute 25, 1
   8              		.eabi_attribute 26, 1
   9              		.eabi_attribute 30, 2
  10              		.eabi_attribute 34, 1
  11              		.eabi_attribute 18, 4
  12              		.file	"test-daisy-seed.cpp"
  13              		.text
  14              	.Ltext0:
  15              		.cfi_sections	.debug_frame
  16              		.section	.text._ZN5daisy9DaisySeedD2Ev,"axG",%progbits,_ZN5daisy9DaisySeedD5Ev,comdat
  17              		.align	1
  18              		.p2align 2,,3
  19              		.weak	_ZN5daisy9DaisySeedD2Ev
  20              		.arch armv7e-m
  21              		.syntax unified
  22              		.thumb
  23              		.thumb_func
  24              		.fpu fpv5-d16
  26              	_ZN5daisy9DaisySeedD2Ev:
  27              	.LVL0:
  28              	.LFB2555:
  29              		.file 1 "../../libDaisy//src/daisy_seed.h"
   1:../../libDaisy//src/daisy_seed.h **** #pragma once
   2:../../libDaisy//src/daisy_seed.h **** #ifndef DSY_SEED_H
   3:../../libDaisy//src/daisy_seed.h **** #define DSY_SEED_H
   4:../../libDaisy//src/daisy_seed.h **** 
   5:../../libDaisy//src/daisy_seed.h **** #include "daisy.h"
   6:../../libDaisy//src/daisy_seed.h **** 
   7:../../libDaisy//src/daisy_seed.h **** //Uncomment this out if you're still using the rev2 hardware
   8:../../libDaisy//src/daisy_seed.h **** //#define SEED_REV2
   9:../../libDaisy//src/daisy_seed.h **** 
  10:../../libDaisy//src/daisy_seed.h **** namespace daisy
  11:../../libDaisy//src/daisy_seed.h **** {
  12:../../libDaisy//src/daisy_seed.h **** /**
  13:../../libDaisy//src/daisy_seed.h ****    @brief This is the higher-level interface for the Daisy board. \n 
  14:../../libDaisy//src/daisy_seed.h ****     All basic peripheral configuration/initialization is setup here. \n
  15:../../libDaisy//src/daisy_seed.h **** 
  16:../../libDaisy//src/daisy_seed.h ****    @ingroup boards
  17:../../libDaisy//src/daisy_seed.h **** */
  18:../../libDaisy//src/daisy_seed.h **** class DaisySeed
  19:../../libDaisy//src/daisy_seed.h **** {
  20:../../libDaisy//src/daisy_seed.h ****   public:
  21:../../libDaisy//src/daisy_seed.h ****     DaisySeed() {}
  22:../../libDaisy//src/daisy_seed.h ****     ~DaisySeed() {}
  30              		.loc 1 22 5 view -0
  31              		.cfi_startproc
  32              		@ args = 0, pretend = 0, frame = 0
  33              		@ frame_needed = 0, uses_anonymous_args = 0
  34              		@ link register save eliminated.
  35              	.LBB221:
  36              	.LBI221:
ARM GAS  C:\Users\louis\AppData\Local\Temp\ccBNZUOb.s 			page 2


  37              		.file 2 "../../libDaisy//src/sys/system.h"
   1:../../libDaisy//src/sys/system.h **** #ifndef DSY_SYSTEM_H
   2:../../libDaisy//src/sys/system.h **** #define DSY_SYSTEM_H
   3:../../libDaisy//src/sys/system.h **** 
   4:../../libDaisy//src/sys/system.h **** #ifndef UNIT_TEST // for unit tests, a dummy implementation is provided below
   5:../../libDaisy//src/sys/system.h **** 
   6:../../libDaisy//src/sys/system.h **** #include <cstdint>
   7:../../libDaisy//src/sys/system.h **** #include "per/tim.h"
   8:../../libDaisy//src/sys/system.h **** 
   9:../../libDaisy//src/sys/system.h **** namespace daisy
  10:../../libDaisy//src/sys/system.h **** {
  11:../../libDaisy//src/sys/system.h **** /** A handle for interacting with the Core System.
  12:../../libDaisy//src/sys/system.h ****  ** This includes the Clock tree, MPU, global DMA initialization,
  13:../../libDaisy//src/sys/system.h ****  ** cache handling, and any other necessary global initiailzation
  14:../../libDaisy//src/sys/system.h ****  **
  15:../../libDaisy//src/sys/system.h ****  ** @author shensley
  16:../../libDaisy//src/sys/system.h ****  ** @ingroup system
  17:../../libDaisy//src/sys/system.h ****  */
  18:../../libDaisy//src/sys/system.h **** class System
  19:../../libDaisy//src/sys/system.h **** {
  20:../../libDaisy//src/sys/system.h ****   public:
  21:../../libDaisy//src/sys/system.h ****     /** Contains settings for initializing the System */
  22:../../libDaisy//src/sys/system.h ****     struct Config
  23:../../libDaisy//src/sys/system.h ****     {
  24:../../libDaisy//src/sys/system.h ****         /** Specifies the system clock frequency that feeds APB/AHB clocks, etc. */
  25:../../libDaisy//src/sys/system.h ****         enum class SysClkFreq
  26:../../libDaisy//src/sys/system.h ****         {
  27:../../libDaisy//src/sys/system.h ****             FREQ_400MHZ,
  28:../../libDaisy//src/sys/system.h ****             FREQ_480MHZ,
  29:../../libDaisy//src/sys/system.h ****         };
  30:../../libDaisy//src/sys/system.h **** 
  31:../../libDaisy//src/sys/system.h ****         /** Method to call on the struct to set to defaults
  32:../../libDaisy//src/sys/system.h ****          ** CPU Freq set to 400MHz
  33:../../libDaisy//src/sys/system.h ****          ** Cache Enabled
  34:../../libDaisy//src/sys/system.h ****          ** */
  35:../../libDaisy//src/sys/system.h ****         void Defaults()
  36:../../libDaisy//src/sys/system.h ****         {
  37:../../libDaisy//src/sys/system.h ****             cpu_freq    = SysClkFreq::FREQ_400MHZ;
  38:../../libDaisy//src/sys/system.h ****             use_dcache  = true;
  39:../../libDaisy//src/sys/system.h ****             use_icache  = true;
  40:../../libDaisy//src/sys/system.h ****             skip_clocks = false;
  41:../../libDaisy//src/sys/system.h ****         }
  42:../../libDaisy//src/sys/system.h **** 
  43:../../libDaisy//src/sys/system.h ****         /** Method to call on the struct to set to boost mode:
  44:../../libDaisy//src/sys/system.h ****          ** CPU Freq set to 480MHz
  45:../../libDaisy//src/sys/system.h ****          ** Cache Enabled
  46:../../libDaisy//src/sys/system.h ****          ** */
  47:../../libDaisy//src/sys/system.h ****         void Boost()
  48:../../libDaisy//src/sys/system.h ****         {
  49:../../libDaisy//src/sys/system.h ****             cpu_freq    = SysClkFreq::FREQ_480MHZ;
  50:../../libDaisy//src/sys/system.h ****             use_dcache  = true;
  51:../../libDaisy//src/sys/system.h ****             use_icache  = true;
  52:../../libDaisy//src/sys/system.h ****             skip_clocks = false;
  53:../../libDaisy//src/sys/system.h ****         }
  54:../../libDaisy//src/sys/system.h **** 
  55:../../libDaisy//src/sys/system.h ****         SysClkFreq cpu_freq;
  56:../../libDaisy//src/sys/system.h ****         bool       use_dcache;
ARM GAS  C:\Users\louis\AppData\Local\Temp\ccBNZUOb.s 			page 3


  57:../../libDaisy//src/sys/system.h ****         bool       use_icache;
  58:../../libDaisy//src/sys/system.h ****         bool       skip_clocks;
  59:../../libDaisy//src/sys/system.h ****     };
  60:../../libDaisy//src/sys/system.h **** 
  61:../../libDaisy//src/sys/system.h ****     /** Describes the different regions of memory available to the Daisy */
  62:../../libDaisy//src/sys/system.h ****     enum MemoryRegion
  63:../../libDaisy//src/sys/system.h ****     {
  64:../../libDaisy//src/sys/system.h ****         INTERNAL_FLASH = 0,
  65:../../libDaisy//src/sys/system.h ****         ITCMRAM,
  66:../../libDaisy//src/sys/system.h ****         DTCMRAM,
  67:../../libDaisy//src/sys/system.h ****         SRAM_D1,
  68:../../libDaisy//src/sys/system.h ****         SRAM_D2,
  69:../../libDaisy//src/sys/system.h ****         SRAM_D3,
  70:../../libDaisy//src/sys/system.h ****         SDRAM,
  71:../../libDaisy//src/sys/system.h ****         QSPI,
  72:../../libDaisy//src/sys/system.h ****         INVALID_ADDRESS,
  73:../../libDaisy//src/sys/system.h ****     };
  74:../../libDaisy//src/sys/system.h **** 
  75:../../libDaisy//src/sys/system.h ****     /** Bootloader struct for controlling bootloading parameters */
  76:../../libDaisy//src/sys/system.h ****     struct BootInfo
  77:../../libDaisy//src/sys/system.h ****     {
  78:../../libDaisy//src/sys/system.h ****         enum class Type : uint32_t
  79:../../libDaisy//src/sys/system.h ****         {
  80:../../libDaisy//src/sys/system.h ****             INVALID      = 0x00000000,
  81:../../libDaisy//src/sys/system.h ****             JUMP         = 0xDEADBEEF,
  82:../../libDaisy//src/sys/system.h ****             SKIP_TIMEOUT = 0x5AFEB007,
  83:../../libDaisy//src/sys/system.h ****             INF_TIMEOUT  = 0xB0074EFA,
  84:../../libDaisy//src/sys/system.h ****         } status;
  85:../../libDaisy//src/sys/system.h ****         uint32_t data;
  86:../../libDaisy//src/sys/system.h ****         enum class Version : uint32_t
  87:../../libDaisy//src/sys/system.h ****         {
  88:../../libDaisy//src/sys/system.h ****             LT_v6_0 = 0, // Less than v6.0
  89:../../libDaisy//src/sys/system.h ****             NONE,        // No bootloader present
  90:../../libDaisy//src/sys/system.h ****             v6_0,        // v6.0
  91:../../libDaisy//src/sys/system.h ****             v6_1,        // v6.1 or greater
  92:../../libDaisy//src/sys/system.h ****             LAST
  93:../../libDaisy//src/sys/system.h ****         } version;
  94:../../libDaisy//src/sys/system.h ****     };
  95:../../libDaisy//src/sys/system.h **** 
  96:../../libDaisy//src/sys/system.h ****     System() {}
  97:../../libDaisy//src/sys/system.h ****     ~System() {}
  38              		.loc 2 97 5 view .LVU1
  39              		.loc 2 97 5 is_stmt 0 view .LVU2
  40              	.LBE221:
  41              	.LBB222:
  42              	.LBI222:
  43              		.file 3 "../../libDaisy//src/hid/usb.h"
   1:../../libDaisy//src/hid/usb.h **** #pragma once
   2:../../libDaisy//src/hid/usb.h **** #ifndef DSY_HID_USB_H
   3:../../libDaisy//src/hid/usb.h **** #define DSY_HID_USB_H
   4:../../libDaisy//src/hid/usb.h **** #include <stdint.h>
   5:../../libDaisy//src/hid/usb.h **** #include <stdlib.h>
   6:../../libDaisy//src/hid/usb.h **** 
   7:../../libDaisy//src/hid/usb.h **** namespace daisy
   8:../../libDaisy//src/hid/usb.h **** /** @addtogroup human_interface
   9:../../libDaisy//src/hid/usb.h ****     @{
  10:../../libDaisy//src/hid/usb.h **** */
ARM GAS  C:\Users\louis\AppData\Local\Temp\ccBNZUOb.s 			page 4


  11:../../libDaisy//src/hid/usb.h **** 
  12:../../libDaisy//src/hid/usb.h **** {
  13:../../libDaisy//src/hid/usb.h **** /** 
  14:../../libDaisy//src/hid/usb.h ****     @brief Interface for initializing and using the USB Peripherals on the daisy
  15:../../libDaisy//src/hid/usb.h ****     @author Stephen Hensley
  16:../../libDaisy//src/hid/usb.h ****     @date December 2019
  17:../../libDaisy//src/hid/usb.h **** */
  18:../../libDaisy//src/hid/usb.h **** class UsbHandle
  19:../../libDaisy//src/hid/usb.h **** {
  20:../../libDaisy//src/hid/usb.h ****   public:
  21:../../libDaisy//src/hid/usb.h ****     /** Return values for USBHandle Functions */
  22:../../libDaisy//src/hid/usb.h ****     enum class Result
  23:../../libDaisy//src/hid/usb.h ****     {
  24:../../libDaisy//src/hid/usb.h ****         OK,
  25:../../libDaisy//src/hid/usb.h ****         ERR,
  26:../../libDaisy//src/hid/usb.h ****     };
  27:../../libDaisy//src/hid/usb.h **** 
  28:../../libDaisy//src/hid/usb.h ****     /** Specified which of the two USB Peripherals to initialize. */
  29:../../libDaisy//src/hid/usb.h ****     enum UsbPeriph
  30:../../libDaisy//src/hid/usb.h ****     {
  31:../../libDaisy//src/hid/usb.h ****         FS_INTERNAL, /**< Internal pin */
  32:../../libDaisy//src/hid/usb.h ****         FS_EXTERNAL, /**< FS External D+ pin is Pin 38 (GPIO32). FS External D- pin is Pin 37 (GPIO
  33:../../libDaisy//src/hid/usb.h ****         FS_BOTH,     /**< Both */
  34:../../libDaisy//src/hid/usb.h ****     };
  35:../../libDaisy//src/hid/usb.h **** 
  36:../../libDaisy//src/hid/usb.h **** 
  37:../../libDaisy//src/hid/usb.h ****     /** Function called upon reception of a buffer */
  38:../../libDaisy//src/hid/usb.h ****     typedef void (*ReceiveCallback)(uint8_t* buff, uint32_t* len);
  39:../../libDaisy//src/hid/usb.h **** 
  40:../../libDaisy//src/hid/usb.h ****     UsbHandle() {}
  41:../../libDaisy//src/hid/usb.h **** 
  42:../../libDaisy//src/hid/usb.h ****     ~UsbHandle() {}
  44              		.loc 3 42 5 is_stmt 1 view .LVU3
  45              		.loc 3 42 5 is_stmt 0 view .LVU4
  46              	.LBE222:
  47              	.LBB223:
  48              	.LBI223:
  49              		.file 4 "../../libDaisy//src/per/adc.h"
   1:../../libDaisy//src/per/adc.h **** #pragma once
   2:../../libDaisy//src/per/adc.h **** #ifndef DSY_ADC_H
   3:../../libDaisy//src/per/adc.h **** #define DSY_ADC_H /**< Macro */
   4:../../libDaisy//src/per/adc.h **** #include <stdint.h>
   5:../../libDaisy//src/per/adc.h **** #include <stdlib.h>
   6:../../libDaisy//src/per/adc.h **** #include "daisy_core.h"
   7:../../libDaisy//src/per/adc.h **** #include "per/gpio.h"
   8:../../libDaisy//src/per/adc.h **** 
   9:../../libDaisy//src/per/adc.h **** #define DSY_ADC_MAX_CHANNELS 16 /**< Maximum number of ADC channels */
  10:../../libDaisy//src/per/adc.h **** 
  11:../../libDaisy//src/per/adc.h **** namespace daisy
  12:../../libDaisy//src/per/adc.h **** {
  13:../../libDaisy//src/per/adc.h **** /** @addtogroup per_analog
  14:../../libDaisy//src/per/adc.h ****     @{
  15:../../libDaisy//src/per/adc.h **** */
  16:../../libDaisy//src/per/adc.h **** 
  17:../../libDaisy//src/per/adc.h **** /* While there may not be many configuration options here,
  18:../../libDaisy//src/per/adc.h **** using a struct like this allows us to add more configuration
  19:../../libDaisy//src/per/adc.h **** later without breaking existing functionality.
ARM GAS  C:\Users\louis\AppData\Local\Temp\ccBNZUOb.s 			page 5


  20:../../libDaisy//src/per/adc.h **** */
  21:../../libDaisy//src/per/adc.h **** 
  22:../../libDaisy//src/per/adc.h **** /** @brief   Configuration Structure for an ADC Channel 
  23:../../libDaisy//src/per/adc.h ****  *  @details This can be used to configure a a single input, 
  24:../../libDaisy//src/per/adc.h ****  *           or a multiplexed input, allowing up to 8 inputs on 
  25:../../libDaisy//src/per/adc.h ****  *           one channel.
  26:../../libDaisy//src/per/adc.h ****  *  @note    Sharing data lines to multiple muxes _is_ possible, but
  27:../../libDaisy//src/per/adc.h ****  *           each channel sharing data lines must be set to the maximum
  28:../../libDaisy//src/per/adc.h ****  *           number of channels, even if some multiplexers have fewer
  29:../../libDaisy//src/per/adc.h ****  *           inputs connected.
  30:../../libDaisy//src/per/adc.h **** */
  31:../../libDaisy//src/per/adc.h **** struct AdcChannelConfig
  32:../../libDaisy//src/per/adc.h **** {
  33:../../libDaisy//src/per/adc.h ****     /** Which pin to use for multiplexing */
  34:../../libDaisy//src/per/adc.h ****     enum MuxPin
  35:../../libDaisy//src/per/adc.h ****     {
  36:../../libDaisy//src/per/adc.h ****         MUX_SEL_0,    /**< & */
  37:../../libDaisy//src/per/adc.h ****         MUX_SEL_1,    /**< & */
  38:../../libDaisy//src/per/adc.h ****         MUX_SEL_2,    /**< & */
  39:../../libDaisy//src/per/adc.h ****         MUX_SEL_LAST, /**< & */
  40:../../libDaisy//src/per/adc.h ****     };
  41:../../libDaisy//src/per/adc.h **** 
  42:../../libDaisy//src/per/adc.h ****     /** \brief per channel conversion speed added to fixed time based on bitdepth, etc. */
  43:../../libDaisy//src/per/adc.h ****     enum ConversionSpeed
  44:../../libDaisy//src/per/adc.h ****     {
  45:../../libDaisy//src/per/adc.h ****         SPEED_1CYCLES_5,
  46:../../libDaisy//src/per/adc.h ****         SPEED_2CYCLES_5,
  47:../../libDaisy//src/per/adc.h ****         SPEED_8CYCLES_5,
  48:../../libDaisy//src/per/adc.h ****         SPEED_16CYCLES_5,
  49:../../libDaisy//src/per/adc.h ****         SPEED_32CYCLES_5,
  50:../../libDaisy//src/per/adc.h ****         SPEED_64CYCLES_5,
  51:../../libDaisy//src/per/adc.h ****         SPEED_387CYCLES_5,
  52:../../libDaisy//src/per/adc.h ****         SPEED_810CYCLES_5,
  53:../../libDaisy//src/per/adc.h ****     };
  54:../../libDaisy//src/per/adc.h **** 
  55:../../libDaisy//src/per/adc.h ****     /** Initializes a single ADC pin as an ADC. 
  56:../../libDaisy//src/per/adc.h ****     \param pin Pin to init.
  57:../../libDaisy//src/per/adc.h ****     \param speed conversion speed for this pin defaults to 8.5 cycles
  58:../../libDaisy//src/per/adc.h ****      */
  59:../../libDaisy//src/per/adc.h ****     void InitSingle(dsy_gpio_pin pin, ConversionSpeed speed = SPEED_8CYCLES_5);
  60:../../libDaisy//src/per/adc.h **** 
  61:../../libDaisy//src/per/adc.h ****     /** 
  62:../../libDaisy//src/per/adc.h ****     Initializes a single ADC pin as a Multiplexed ADC.
  63:../../libDaisy//src/per/adc.h ****     Requires a CD405X Multiplexer connected to the pin.
  64:../../libDaisy//src/per/adc.h ****     You only need to supply the mux pins that are required,
  65:../../libDaisy//src/per/adc.h ****     e.g. a 4052 mux would only require mux_0 and mux_1.
  66:../../libDaisy//src/per/adc.h ****     Internal Callbacks handle the pin addressing.
  67:../../libDaisy//src/per/adc.h ****     \param adc_pin &
  68:../../libDaisy//src/per/adc.h ****     \param mux_channels must be 1-8
  69:../../libDaisy//src/per/adc.h ****     \param mux_0 First mux pin
  70:../../libDaisy//src/per/adc.h ****     \param mux_1 Second mux pin
  71:../../libDaisy//src/per/adc.h ****     \param mux_2 Third mux pin
  72:../../libDaisy//src/per/adc.h ****     \param speed conversion speed for this pin defaults to 8.5 cycles
  73:../../libDaisy//src/per/adc.h ****     */
  74:../../libDaisy//src/per/adc.h ****     void InitMux(dsy_gpio_pin    adc_pin,
  75:../../libDaisy//src/per/adc.h ****                  size_t          mux_channels,
  76:../../libDaisy//src/per/adc.h ****                  dsy_gpio_pin    mux_0,
ARM GAS  C:\Users\louis\AppData\Local\Temp\ccBNZUOb.s 			page 6


  77:../../libDaisy//src/per/adc.h ****                  dsy_gpio_pin    mux_1 = {DSY_GPIOX, 0},
  78:../../libDaisy//src/per/adc.h ****                  dsy_gpio_pin    mux_2 = {DSY_GPIOX, 0},
  79:../../libDaisy//src/per/adc.h ****                  ConversionSpeed speed = SPEED_8CYCLES_5);
  80:../../libDaisy//src/per/adc.h **** 
  81:../../libDaisy//src/per/adc.h ****     dsy_gpio        pin_;                   /**< & */
  82:../../libDaisy//src/per/adc.h ****     dsy_gpio        mux_pin_[MUX_SEL_LAST]; /**< & */
  83:../../libDaisy//src/per/adc.h ****     uint8_t         mux_channels_;          /**< & */
  84:../../libDaisy//src/per/adc.h ****     ConversionSpeed speed_;
  85:../../libDaisy//src/per/adc.h **** };
  86:../../libDaisy//src/per/adc.h **** 
  87:../../libDaisy//src/per/adc.h **** /**
  88:../../libDaisy//src/per/adc.h ****    @brief Handler for analog to digital conversion
  89:../../libDaisy//src/per/adc.h **** */
  90:../../libDaisy//src/per/adc.h **** class AdcHandle
  91:../../libDaisy//src/per/adc.h **** {
  92:../../libDaisy//src/per/adc.h ****   public:
  93:../../libDaisy//src/per/adc.h ****     /** Supported oversampling amounts */
  94:../../libDaisy//src/per/adc.h ****     enum OverSampling
  95:../../libDaisy//src/per/adc.h ****     {
  96:../../libDaisy//src/per/adc.h ****         OVS_NONE, /**< & */
  97:../../libDaisy//src/per/adc.h ****         OVS_4,    /**< & */
  98:../../libDaisy//src/per/adc.h ****         OVS_8,    /**< & */
  99:../../libDaisy//src/per/adc.h ****         OVS_16,   /**< & */
 100:../../libDaisy//src/per/adc.h ****         OVS_32,   /**< & */
 101:../../libDaisy//src/per/adc.h ****         OVS_64,   /**< & */
 102:../../libDaisy//src/per/adc.h ****         OVS_128,  /**< & */
 103:../../libDaisy//src/per/adc.h ****         OVS_256,  /**< & */
 104:../../libDaisy//src/per/adc.h ****         OVS_512,  /**< & */
 105:../../libDaisy//src/per/adc.h ****         OVS_1024, /**< & */
 106:../../libDaisy//src/per/adc.h ****         OVS_LAST, /**< & */
 107:../../libDaisy//src/per/adc.h ****     };
 108:../../libDaisy//src/per/adc.h **** 
 109:../../libDaisy//src/per/adc.h ****     AdcHandle() {}
 110:../../libDaisy//src/per/adc.h ****     ~AdcHandle() {}
  50              		.loc 4 110 5 is_stmt 1 view .LVU5
  51              		.loc 4 110 5 is_stmt 0 view .LVU6
  52              	.LBE223:
  53              	.LBB224:
  54              	.LBI224:
  55              		.file 5 "../../libDaisy//src/hid/audio.h"
   1:../../libDaisy//src/hid/audio.h **** #ifndef DSY_AUDIO_H
   2:../../libDaisy//src/hid/audio.h **** #define DSY_AUDIO_H /**< & */
   3:../../libDaisy//src/hid/audio.h **** 
   4:../../libDaisy//src/hid/audio.h **** #include "per/sai.h"
   5:../../libDaisy//src/hid/audio.h **** 
   6:../../libDaisy//src/hid/audio.h **** namespace daisy
   7:../../libDaisy//src/hid/audio.h **** {
   8:../../libDaisy//src/hid/audio.h **** /** @brief Audio Engine Handle
   9:../../libDaisy//src/hid/audio.h ****  *  @ingroup audio 
  10:../../libDaisy//src/hid/audio.h ****  *  @details This class allows for higher level access to an audio engine.
  11:../../libDaisy//src/hid/audio.h ****  *           If you're using a SOM like the DaisySeed or DaisyPatchSM (or any 
  12:../../libDaisy//src/hid/audio.h ****  *            board that includes one of those objects) then the intialization
  13:../../libDaisy//src/hid/audio.h ****  *            is already taken  care of.
  14:../../libDaisy//src/hid/audio.h ****  *           If you're setting up your own custom hardware, or need to make changes
  15:../../libDaisy//src/hid/audio.h ****  *           you will have to take the following steps:
  16:../../libDaisy//src/hid/audio.h ****  *             1. Create and Initialize an SaiHandle or two depending on your requirements
  17:../../libDaisy//src/hid/audio.h ****  *             2. Initialize the Audio Handle with the desired settings and the Initialized SaiHand
ARM GAS  C:\Users\louis\AppData\Local\Temp\ccBNZUOb.s 			page 7


  18:../../libDaisy//src/hid/audio.h ****  *             3. If the connected codec requires special configuration or initialization, do so
  19:../../libDaisy//src/hid/audio.h ****  *             4. Write a callback method using either the AudioCallback or the InterleavingAudioCa
  20:../../libDaisy//src/hid/audio.h ****  *             5. Start the Audio using one of the StartAudio function
  21:../../libDaisy//src/hid/audio.h ****  */
  22:../../libDaisy//src/hid/audio.h **** class AudioHandle
  23:../../libDaisy//src/hid/audio.h **** {
  24:../../libDaisy//src/hid/audio.h ****   public:
  25:../../libDaisy//src/hid/audio.h ****     /** Manually configurable details about the Audio Engine */
  26:../../libDaisy//src/hid/audio.h ****     /** TODO: Figure out how to get samplerate in here. */
  27:../../libDaisy//src/hid/audio.h ****     struct Config
  28:../../libDaisy//src/hid/audio.h ****     {
  29:../../libDaisy//src/hid/audio.h ****         /** number of samples to process per callback */
  30:../../libDaisy//src/hid/audio.h ****         size_t blocksize;
  31:../../libDaisy//src/hid/audio.h **** 
  32:../../libDaisy//src/hid/audio.h ****         /**< Sample rate of audio */
  33:../../libDaisy//src/hid/audio.h ****         SaiHandle::Config::SampleRate samplerate;
  34:../../libDaisy//src/hid/audio.h **** 
  35:../../libDaisy//src/hid/audio.h ****         /** factor for adjustment before and after callback for hardware that may have extra headro
  36:../../libDaisy//src/hid/audio.h ****         float postgain;
  37:../../libDaisy//src/hid/audio.h **** 
  38:../../libDaisy//src/hid/audio.h ****         /** factor for additional one-sided compensation to audio path for hardware that may
  39:../../libDaisy//src/hid/audio.h ****          *  have unequal input/output ranges
  40:../../libDaisy//src/hid/audio.h ****          */
  41:../../libDaisy//src/hid/audio.h ****         float output_compensation;
  42:../../libDaisy//src/hid/audio.h **** 
  43:../../libDaisy//src/hid/audio.h ****         /** Sets default values for config struct */
  44:../../libDaisy//src/hid/audio.h ****         Config()
  45:../../libDaisy//src/hid/audio.h ****         : blocksize(48),
  46:../../libDaisy//src/hid/audio.h ****           samplerate(SaiHandle::Config::SampleRate::SAI_48KHZ),
  47:../../libDaisy//src/hid/audio.h ****           postgain(1.f),
  48:../../libDaisy//src/hid/audio.h ****           output_compensation(1.f)
  49:../../libDaisy//src/hid/audio.h ****         {
  50:../../libDaisy//src/hid/audio.h ****         }
  51:../../libDaisy//src/hid/audio.h ****     };
  52:../../libDaisy//src/hid/audio.h **** 
  53:../../libDaisy//src/hid/audio.h ****     enum class Result
  54:../../libDaisy//src/hid/audio.h ****     {
  55:../../libDaisy//src/hid/audio.h ****         OK,
  56:../../libDaisy//src/hid/audio.h ****         ERR,
  57:../../libDaisy//src/hid/audio.h ****     };
  58:../../libDaisy//src/hid/audio.h **** 
  59:../../libDaisy//src/hid/audio.h ****     /** Non-Interleaving input buffer
  60:../../libDaisy//src/hid/audio.h ****      * Buffer arranged by float[chn][sample] 
  61:../../libDaisy//src/hid/audio.h ****      * const so that the user can't modify the input
  62:../../libDaisy//src/hid/audio.h ****      */
  63:../../libDaisy//src/hid/audio.h ****     typedef const float* const* InputBuffer;
  64:../../libDaisy//src/hid/audio.h **** 
  65:../../libDaisy//src/hid/audio.h ****     /** Non-Interleaving output buffer
  66:../../libDaisy//src/hid/audio.h ****      * Arranged by float[chn][sample] 
  67:../../libDaisy//src/hid/audio.h ****      */
  68:../../libDaisy//src/hid/audio.h ****     typedef float** OutputBuffer;
  69:../../libDaisy//src/hid/audio.h **** 
  70:../../libDaisy//src/hid/audio.h ****     /** Type for a Non-Interleaving audio callback 
  71:../../libDaisy//src/hid/audio.h ****      * Non-Interleaving audio callbacks in daisy will be of this type
  72:../../libDaisy//src/hid/audio.h ****      */
  73:../../libDaisy//src/hid/audio.h ****     typedef void (*AudioCallback)(InputBuffer  in,
  74:../../libDaisy//src/hid/audio.h ****                                   OutputBuffer out,
ARM GAS  C:\Users\louis\AppData\Local\Temp\ccBNZUOb.s 			page 8


  75:../../libDaisy//src/hid/audio.h ****                                   size_t       size);
  76:../../libDaisy//src/hid/audio.h **** 
  77:../../libDaisy//src/hid/audio.h ****     /** Interleaving Input buffer
  78:../../libDaisy//src/hid/audio.h ****      ** audio is prepared as { L0, R0, L1, R1, . . . LN, RN }]
  79:../../libDaisy//src/hid/audio.h ****      ** this is const, as the user shouldn't modify it
  80:../../libDaisy//src/hid/audio.h ****     */
  81:../../libDaisy//src/hid/audio.h ****     typedef const float* InterleavingInputBuffer;
  82:../../libDaisy//src/hid/audio.h **** 
  83:../../libDaisy//src/hid/audio.h ****     /** Interleaving Output buffer 
  84:../../libDaisy//src/hid/audio.h ****      ** audio is prepared as { L0, R0, L1, R1, . . . LN, RN }
  85:../../libDaisy//src/hid/audio.h ****     */
  86:../../libDaisy//src/hid/audio.h ****     typedef float* InterleavingOutputBuffer;
  87:../../libDaisy//src/hid/audio.h **** 
  88:../../libDaisy//src/hid/audio.h ****     /** Interleaving Audio Callback 
  89:../../libDaisy//src/hid/audio.h ****      * Interleaving audio callbacks in daisy must be of this type
  90:../../libDaisy//src/hid/audio.h ****      */
  91:../../libDaisy//src/hid/audio.h ****     typedef void (*InterleavingAudioCallback)(InterleavingInputBuffer  in,
  92:../../libDaisy//src/hid/audio.h ****                                               InterleavingOutputBuffer out,
  93:../../libDaisy//src/hid/audio.h ****                                               size_t                   size);
  94:../../libDaisy//src/hid/audio.h **** 
  95:../../libDaisy//src/hid/audio.h ****     AudioHandle() : pimpl_(nullptr) {}
  96:../../libDaisy//src/hid/audio.h ****     ~AudioHandle() {}
  56              		.loc 5 96 5 is_stmt 1 view .LVU7
  57              		.loc 5 96 5 is_stmt 0 view .LVU8
  58              	.LBE224:
  59              		.loc 1 22 19 view .LVU9
  60 0000 7047     		bx	lr
  61              		.cfi_endproc
  62              	.LFE2555:
  64              		.weak	_ZN5daisy9DaisySeedD1Ev
  65              		.thumb_set _ZN5daisy9DaisySeedD1Ev,_ZN5daisy9DaisySeedD2Ev
  66 0002 00BF     		.section	.text._ZN7daisysp5AdEnvD2Ev,"axG",%progbits,_ZN7daisysp5AdEnvD5Ev,comdat
  67              		.align	1
  68              		.p2align 2,,3
  69              		.weak	_ZN7daisysp5AdEnvD2Ev
  70              		.syntax unified
  71              		.thumb
  72              		.thumb_func
  73              		.fpu fpv5-d16
  75              	_ZN7daisysp5AdEnvD2Ev:
  76              	.LVL1:
  77              	.LFB2564:
  78              		.file 6 "../../DaisySP//Source/Control/adenv.h"
   1:../../DaisySP//Source/Control/adenv.h **** /*
   2:../../DaisySP//Source/Control/adenv.h **** Copyright (c) 2020 Electrosmith, Corp
   3:../../DaisySP//Source/Control/adenv.h **** 
   4:../../DaisySP//Source/Control/adenv.h **** Use of this source code is governed by an MIT-style
   5:../../DaisySP//Source/Control/adenv.h **** license that can be found in the LICENSE file or at
   6:../../DaisySP//Source/Control/adenv.h **** https://opensource.org/licenses/MIT.
   7:../../DaisySP//Source/Control/adenv.h **** */
   8:../../DaisySP//Source/Control/adenv.h **** 
   9:../../DaisySP//Source/Control/adenv.h **** #pragma once
  10:../../DaisySP//Source/Control/adenv.h **** #ifndef ADENV_H
  11:../../DaisySP//Source/Control/adenv.h **** #define ADENV_H
  12:../../DaisySP//Source/Control/adenv.h **** #include <stdint.h>
  13:../../DaisySP//Source/Control/adenv.h **** #ifdef __cplusplus
  14:../../DaisySP//Source/Control/adenv.h **** 
ARM GAS  C:\Users\louis\AppData\Local\Temp\ccBNZUOb.s 			page 9


  15:../../DaisySP//Source/Control/adenv.h **** namespace daisysp
  16:../../DaisySP//Source/Control/adenv.h **** {
  17:../../DaisySP//Source/Control/adenv.h **** /** Distinct stages that the phase of the envelope can be located in.
  18:../../DaisySP//Source/Control/adenv.h ****     @see AdEnv
  19:../../DaisySP//Source/Control/adenv.h **** */
  20:../../DaisySP//Source/Control/adenv.h **** enum AdEnvSegment
  21:../../DaisySP//Source/Control/adenv.h **** {
  22:../../DaisySP//Source/Control/adenv.h ****     /** located at phase location 0, and not currently running */
  23:../../DaisySP//Source/Control/adenv.h ****     ADENV_SEG_IDLE,
  24:../../DaisySP//Source/Control/adenv.h ****     /** First segment of envelope where phase moves from MIN value to MAX value */
  25:../../DaisySP//Source/Control/adenv.h ****     ADENV_SEG_ATTACK,
  26:../../DaisySP//Source/Control/adenv.h ****     /** Second segment of envelope where phase moves from MAX to MIN value */
  27:../../DaisySP//Source/Control/adenv.h ****     ADENV_SEG_DECAY,
  28:../../DaisySP//Source/Control/adenv.h ****     /** The final segment of the envelope (currently decay) */
  29:../../DaisySP//Source/Control/adenv.h ****     ADENV_SEG_LAST,
  30:../../DaisySP//Source/Control/adenv.h **** };
  31:../../DaisySP//Source/Control/adenv.h **** 
  32:../../DaisySP//Source/Control/adenv.h **** /** Trigger-able envelope with adjustable min/max, and independent per-segment time control.
  33:../../DaisySP//Source/Control/adenv.h **** 
  34:../../DaisySP//Source/Control/adenv.h ****     \author shensley
  35:../../DaisySP//Source/Control/adenv.h ****     \todo - Add Cycling
  36:../../DaisySP//Source/Control/adenv.h ****     \todo - Implement Curve (its only linear for now).
  37:../../DaisySP//Source/Control/adenv.h ****     \todo - Maybe make this an ADsr_ that has AD/AR/Asr_ modes.
  38:../../DaisySP//Source/Control/adenv.h ****  */
  39:../../DaisySP//Source/Control/adenv.h **** class AdEnv
  40:../../DaisySP//Source/Control/adenv.h **** {
  41:../../DaisySP//Source/Control/adenv.h ****   public:
  42:../../DaisySP//Source/Control/adenv.h ****     AdEnv() {}
  43:../../DaisySP//Source/Control/adenv.h ****     ~AdEnv() {}
  79              		.loc 6 43 5 is_stmt 1 view -0
  80              		.cfi_startproc
  81              		@ args = 0, pretend = 0, frame = 0
  82              		@ frame_needed = 0, uses_anonymous_args = 0
  83              		@ link register save eliminated.
  84              		.loc 6 43 15 is_stmt 0 view .LVU11
  85 0000 7047     		bx	lr
  86              		.cfi_endproc
  87              	.LFE2564:
  89              		.weak	_ZN7daisysp5AdEnvD1Ev
  90              		.thumb_set _ZN7daisysp5AdEnvD1Ev,_ZN7daisysp5AdEnvD2Ev
  91              		.section	.text._ZN7daisysp10OscillatorD2Ev,"axG",%progbits,_ZN7daisysp10OscillatorD5Ev,comdat
  92              		.align	1
  93              		.p2align 2,,3
  94              		.weak	_ZN7daisysp10OscillatorD2Ev
  95              		.syntax unified
  96              		.thumb
  97              		.thumb_func
  98              		.fpu fpv5-d16
 100              	_ZN7daisysp10OscillatorD2Ev:
 101              	.LVL2:
 102              	.LFB4240:
 103              		.file 7 "../../DaisySP//Source/Synthesis/oscillator.h"
   1:../../DaisySP//Source/Synthesis/oscillator.h **** /*
   2:../../DaisySP//Source/Synthesis/oscillator.h **** Copyright (c) 2020 Electrosmith, Corp
   3:../../DaisySP//Source/Synthesis/oscillator.h **** 
   4:../../DaisySP//Source/Synthesis/oscillator.h **** Use of this source code is governed by an MIT-style
   5:../../DaisySP//Source/Synthesis/oscillator.h **** license that can be found in the LICENSE file or at
ARM GAS  C:\Users\louis\AppData\Local\Temp\ccBNZUOb.s 			page 10


   6:../../DaisySP//Source/Synthesis/oscillator.h **** https://opensource.org/licenses/MIT.
   7:../../DaisySP//Source/Synthesis/oscillator.h **** */
   8:../../DaisySP//Source/Synthesis/oscillator.h **** 
   9:../../DaisySP//Source/Synthesis/oscillator.h **** #pragma once
  10:../../DaisySP//Source/Synthesis/oscillator.h **** #ifndef DSY_OSCILLATOR_H
  11:../../DaisySP//Source/Synthesis/oscillator.h **** #define DSY_OSCILLATOR_H
  12:../../DaisySP//Source/Synthesis/oscillator.h **** #include <stdint.h>
  13:../../DaisySP//Source/Synthesis/oscillator.h **** #include "Utility/dsp.h"
  14:../../DaisySP//Source/Synthesis/oscillator.h **** #ifdef __cplusplus
  15:../../DaisySP//Source/Synthesis/oscillator.h **** 
  16:../../DaisySP//Source/Synthesis/oscillator.h **** namespace daisysp
  17:../../DaisySP//Source/Synthesis/oscillator.h **** {
  18:../../DaisySP//Source/Synthesis/oscillator.h **** /** Synthesis of several waveforms, including polyBLEP bandlimited waveforms.
  19:../../DaisySP//Source/Synthesis/oscillator.h **** */
  20:../../DaisySP//Source/Synthesis/oscillator.h **** class Oscillator
  21:../../DaisySP//Source/Synthesis/oscillator.h **** {
  22:../../DaisySP//Source/Synthesis/oscillator.h ****   public:
  23:../../DaisySP//Source/Synthesis/oscillator.h ****     Oscillator() {}
  24:../../DaisySP//Source/Synthesis/oscillator.h ****     ~Oscillator() {}
 104              		.loc 7 24 5 is_stmt 1 view -0
 105              		.cfi_startproc
 106              		@ args = 0, pretend = 0, frame = 0
 107              		@ frame_needed = 0, uses_anonymous_args = 0
 108              		@ link register save eliminated.
 109              		.loc 7 24 20 is_stmt 0 view .LVU13
 110 0000 7047     		bx	lr
 111              		.cfi_endproc
 112              	.LFE4240:
 114              		.weak	_ZN7daisysp10OscillatorD1Ev
 115              		.thumb_set _ZN7daisysp10OscillatorD1Ev,_ZN7daisysp10OscillatorD2Ev
 116              		.section	.text._ZN7daisysp3SvfD2Ev,"axG",%progbits,_ZN7daisysp3SvfD5Ev,comdat
 117              		.align	1
 118              		.p2align 2,,3
 119              		.weak	_ZN7daisysp3SvfD2Ev
 120              		.syntax unified
 121              		.thumb
 122              		.thumb_func
 123              		.fpu fpv5-d16
 125              	_ZN7daisysp3SvfD2Ev:
 126              	.LVL3:
 127              	.LFB4257:
 128              		.file 8 "../../DaisySP//Source/Filters/svf.h"
   1:../../DaisySP//Source/Filters/svf.h **** /*
   2:../../DaisySP//Source/Filters/svf.h **** Copyright (c) 2020 Electrosmith, Corp
   3:../../DaisySP//Source/Filters/svf.h **** 
   4:../../DaisySP//Source/Filters/svf.h **** Use of this source code is governed by an MIT-style
   5:../../DaisySP//Source/Filters/svf.h **** license that can be found in the LICENSE file or at
   6:../../DaisySP//Source/Filters/svf.h **** https://opensource.org/licenses/MIT.
   7:../../DaisySP//Source/Filters/svf.h **** */
   8:../../DaisySP//Source/Filters/svf.h **** 
   9:../../DaisySP//Source/Filters/svf.h **** #pragma once
  10:../../DaisySP//Source/Filters/svf.h **** #ifndef DSY_SVF_H
  11:../../DaisySP//Source/Filters/svf.h **** #define DSY_SVF_H
  12:../../DaisySP//Source/Filters/svf.h **** 
  13:../../DaisySP//Source/Filters/svf.h **** namespace daisysp
  14:../../DaisySP//Source/Filters/svf.h **** {
  15:../../DaisySP//Source/Filters/svf.h **** /**      Double Sampled, Stable State Variable Filter
ARM GAS  C:\Users\louis\AppData\Local\Temp\ccBNZUOb.s 			page 11


  16:../../DaisySP//Source/Filters/svf.h **** 
  17:../../DaisySP//Source/Filters/svf.h **** Credit to Andrew Simper from musicdsp.org
  18:../../DaisySP//Source/Filters/svf.h **** 
  19:../../DaisySP//Source/Filters/svf.h **** This is his "State Variable Filter (Double Sampled, Stable)"
  20:../../DaisySP//Source/Filters/svf.h **** 
  21:../../DaisySP//Source/Filters/svf.h **** Additional thanks to Laurent de Soras for stability limit, and 
  22:../../DaisySP//Source/Filters/svf.h **** Stefan Diedrichsen for the correct notch output
  23:../../DaisySP//Source/Filters/svf.h **** 
  24:../../DaisySP//Source/Filters/svf.h **** Ported by: Stephen Hensley
  25:../../DaisySP//Source/Filters/svf.h **** */
  26:../../DaisySP//Source/Filters/svf.h **** class Svf
  27:../../DaisySP//Source/Filters/svf.h **** {
  28:../../DaisySP//Source/Filters/svf.h ****   public:
  29:../../DaisySP//Source/Filters/svf.h ****     Svf() {}
  30:../../DaisySP//Source/Filters/svf.h ****     ~Svf() {}
 129              		.loc 8 30 5 is_stmt 1 view -0
 130              		.cfi_startproc
 131              		@ args = 0, pretend = 0, frame = 0
 132              		@ frame_needed = 0, uses_anonymous_args = 0
 133              		@ link register save eliminated.
 134              		.loc 8 30 13 is_stmt 0 view .LVU15
 135 0000 7047     		bx	lr
 136              		.cfi_endproc
 137              	.LFE4257:
 139              		.weak	_ZN7daisysp3SvfD1Ev
 140              		.thumb_set _ZN7daisysp3SvfD1Ev,_ZN7daisysp3SvfD2Ev
 141              		.section	.text._ZN7daisysp7OnePoleD2Ev,"axG",%progbits,_ZN7daisysp7OnePoleD5Ev,comdat
 142              		.align	1
 143              		.p2align 2,,3
 144              		.weak	_ZN7daisysp7OnePoleD2Ev
 145              		.syntax unified
 146              		.thumb
 147              		.thumb_func
 148              		.fpu fpv5-d16
 150              	_ZN7daisysp7OnePoleD2Ev:
 151              	.LVL4:
 152              	.LFB4452:
 153              		.file 9 "../../DaisySP//Source/Filters/onepole.h"
   1:../../DaisySP//Source/Filters/onepole.h **** /*
   2:../../DaisySP//Source/Filters/onepole.h **** Copyright (c) 2020 Electrosmith, Corp, Emilie Gillet
   3:../../DaisySP//Source/Filters/onepole.h **** 
   4:../../DaisySP//Source/Filters/onepole.h **** Use of this source code is governed by an MIT-style
   5:../../DaisySP//Source/Filters/onepole.h **** license that can be found in the LICENSE file or at
   6:../../DaisySP//Source/Filters/onepole.h **** https://opensource.org/licenses/MIT.
   7:../../DaisySP//Source/Filters/onepole.h **** */
   8:../../DaisySP//Source/Filters/onepole.h **** 
   9:../../DaisySP//Source/Filters/onepole.h **** #ifndef DSY_ONEPOLE_H
  10:../../DaisySP//Source/Filters/onepole.h **** #define DSY_ONEPOLE_H
  11:../../DaisySP//Source/Filters/onepole.h **** 
  12:../../DaisySP//Source/Filters/onepole.h **** #include "Utility/dsp.h"
  13:../../DaisySP//Source/Filters/onepole.h **** #include <cmath>
  14:../../DaisySP//Source/Filters/onepole.h **** #include <algorithm>
  15:../../DaisySP//Source/Filters/onepole.h **** 
  16:../../DaisySP//Source/Filters/onepole.h **** namespace daisysp
  17:../../DaisySP//Source/Filters/onepole.h **** {
  18:../../DaisySP//Source/Filters/onepole.h **** /**         
  19:../../DaisySP//Source/Filters/onepole.h ****     @brief One Pole Lowpass / Highpass Filter
ARM GAS  C:\Users\louis\AppData\Local\Temp\ccBNZUOb.s 			page 12


  20:../../DaisySP//Source/Filters/onepole.h ****     @author beserge
  21:../../DaisySP//Source/Filters/onepole.h ****     @date Dec 2023 
  22:../../DaisySP//Source/Filters/onepole.h ****     Ported from pichenettes/stmlib/dsp/filter.h \n 
  23:../../DaisySP//Source/Filters/onepole.h ****     \n to an independent module. \n
  24:../../DaisySP//Source/Filters/onepole.h ****     Original code written by Emilie Gillet. \n
  25:../../DaisySP//Source/Filters/onepole.h **** */
  26:../../DaisySP//Source/Filters/onepole.h **** class OnePole
  27:../../DaisySP//Source/Filters/onepole.h **** {
  28:../../DaisySP//Source/Filters/onepole.h ****   public:
  29:../../DaisySP//Source/Filters/onepole.h ****     OnePole() {}
  30:../../DaisySP//Source/Filters/onepole.h ****     ~OnePole() {}
 154              		.loc 9 30 5 is_stmt 1 view -0
 155              		.cfi_startproc
 156              		@ args = 0, pretend = 0, frame = 0
 157              		@ frame_needed = 0, uses_anonymous_args = 0
 158              		@ link register save eliminated.
 159              		.loc 9 30 17 is_stmt 0 view .LVU17
 160 0000 7047     		bx	lr
 161              		.cfi_endproc
 162              	.LFE4452:
 164              		.weak	_ZN7daisysp7OnePoleD1Ev
 165              		.thumb_set _ZN7daisysp7OnePoleD1Ev,_ZN7daisysp7OnePoleD2Ev
 166              		.section	.text._ZN7daisysp10WhiteNoiseD2Ev,"axG",%progbits,_ZN7daisysp10WhiteNoiseD5Ev,comdat
 167              		.align	1
 168              		.p2align 2,,3
 169              		.weak	_ZN7daisysp10WhiteNoiseD2Ev
 170              		.syntax unified
 171              		.thumb
 172              		.thumb_func
 173              		.fpu fpv5-d16
 175              	_ZN7daisysp10WhiteNoiseD2Ev:
 176              	.LVL5:
 177              	.LFB4522:
 178              		.file 10 "../../DaisySP//Source/Noise/whitenoise.h"
   1:../../DaisySP//Source/Noise/whitenoise.h **** /*
   2:../../DaisySP//Source/Noise/whitenoise.h **** Copyright (c) 2020 Electrosmith, Corp
   3:../../DaisySP//Source/Noise/whitenoise.h **** 
   4:../../DaisySP//Source/Noise/whitenoise.h **** Use of this source code is governed by an MIT-style
   5:../../DaisySP//Source/Noise/whitenoise.h **** license that can be found in the LICENSE file or at
   6:../../DaisySP//Source/Noise/whitenoise.h **** https://opensource.org/licenses/MIT.
   7:../../DaisySP//Source/Noise/whitenoise.h **** */
   8:../../DaisySP//Source/Noise/whitenoise.h **** 
   9:../../DaisySP//Source/Noise/whitenoise.h **** #pragma once
  10:../../DaisySP//Source/Noise/whitenoise.h **** #ifndef DSY_WHITENOISE_H
  11:../../DaisySP//Source/Noise/whitenoise.h **** #define DSY_WHITENOISE_H
  12:../../DaisySP//Source/Noise/whitenoise.h **** #include <stdint.h>
  13:../../DaisySP//Source/Noise/whitenoise.h **** #ifdef __cplusplus
  14:../../DaisySP//Source/Noise/whitenoise.h **** namespace daisysp
  15:../../DaisySP//Source/Noise/whitenoise.h **** {
  16:../../DaisySP//Source/Noise/whitenoise.h **** /** fast white noise generator
  17:../../DaisySP//Source/Noise/whitenoise.h **** 
  18:../../DaisySP//Source/Noise/whitenoise.h ****     I think this came from musicdsp.org at some point
  19:../../DaisySP//Source/Noise/whitenoise.h **** */
  20:../../DaisySP//Source/Noise/whitenoise.h **** class WhiteNoise
  21:../../DaisySP//Source/Noise/whitenoise.h **** {
  22:../../DaisySP//Source/Noise/whitenoise.h ****   public:
  23:../../DaisySP//Source/Noise/whitenoise.h ****     WhiteNoise() {}
ARM GAS  C:\Users\louis\AppData\Local\Temp\ccBNZUOb.s 			page 13


  24:../../DaisySP//Source/Noise/whitenoise.h ****     ~WhiteNoise() {}
 179              		.loc 10 24 5 is_stmt 1 view -0
 180              		.cfi_startproc
 181              		@ args = 0, pretend = 0, frame = 0
 182              		@ frame_needed = 0, uses_anonymous_args = 0
 183              		@ link register save eliminated.
 184              		.loc 10 24 20 is_stmt 0 view .LVU19
 185 0000 7047     		bx	lr
 186              		.cfi_endproc
 187              	.LFE4522:
 189              		.weak	_ZN7daisysp10WhiteNoiseD1Ev
 190              		.thumb_set _ZN7daisysp10WhiteNoiseD1Ev,_ZN7daisysp10WhiteNoiseD2Ev
 191              		.section	.text._ZN7daisysp9DelayLineIfLj48000EED2Ev,"axG",%progbits,_ZN7daisysp9DelayLineIfLj48000
 192              		.align	1
 193              		.p2align 2,,3
 194              		.weak	_ZN7daisysp9DelayLineIfLj48000EED2Ev
 195              		.syntax unified
 196              		.thumb
 197              		.thumb_func
 198              		.fpu fpv5-d16
 200              	_ZN7daisysp9DelayLineIfLj48000EED2Ev:
 201              	.LVL6:
 202              	.LFB5254:
 203              		.file 11 "../../DaisySP//Source/Utility/delayline.h"
   1:../../DaisySP//Source/Utility/delayline.h **** /*
   2:../../DaisySP//Source/Utility/delayline.h **** Copyright (c) 2020 Electrosmith, Corp
   3:../../DaisySP//Source/Utility/delayline.h **** 
   4:../../DaisySP//Source/Utility/delayline.h **** Use of this source code is governed by an MIT-style
   5:../../DaisySP//Source/Utility/delayline.h **** license that can be found in the LICENSE file or at
   6:../../DaisySP//Source/Utility/delayline.h **** https://opensource.org/licenses/MIT.
   7:../../DaisySP//Source/Utility/delayline.h **** */
   8:../../DaisySP//Source/Utility/delayline.h **** 
   9:../../DaisySP//Source/Utility/delayline.h **** #pragma once
  10:../../DaisySP//Source/Utility/delayline.h **** #ifndef DSY_DELAY_H
  11:../../DaisySP//Source/Utility/delayline.h **** #define DSY_DELAY_H
  12:../../DaisySP//Source/Utility/delayline.h **** #include <stdlib.h>
  13:../../DaisySP//Source/Utility/delayline.h **** #include <stdint.h>
  14:../../DaisySP//Source/Utility/delayline.h **** namespace daisysp
  15:../../DaisySP//Source/Utility/delayline.h **** {
  16:../../DaisySP//Source/Utility/delayline.h **** /** Simple Delay line.
  17:../../DaisySP//Source/Utility/delayline.h **** November 2019
  18:../../DaisySP//Source/Utility/delayline.h **** 
  19:../../DaisySP//Source/Utility/delayline.h **** Converted to Template December 2019
  20:../../DaisySP//Source/Utility/delayline.h **** 
  21:../../DaisySP//Source/Utility/delayline.h **** declaration example: (1 second of floats)
  22:../../DaisySP//Source/Utility/delayline.h **** 
  23:../../DaisySP//Source/Utility/delayline.h **** DelayLine<float, SAMPLE_RATE> del;
  24:../../DaisySP//Source/Utility/delayline.h **** 
  25:../../DaisySP//Source/Utility/delayline.h **** By: shensley
  26:../../DaisySP//Source/Utility/delayline.h **** */
  27:../../DaisySP//Source/Utility/delayline.h **** template <typename T, size_t max_size>
  28:../../DaisySP//Source/Utility/delayline.h **** class DelayLine
  29:../../DaisySP//Source/Utility/delayline.h **** {
  30:../../DaisySP//Source/Utility/delayline.h ****   public:
  31:../../DaisySP//Source/Utility/delayline.h ****     DelayLine() {}
  32:../../DaisySP//Source/Utility/delayline.h ****     ~DelayLine() {}
 204              		.loc 11 32 5 is_stmt 1 view -0
ARM GAS  C:\Users\louis\AppData\Local\Temp\ccBNZUOb.s 			page 14


 205              		.cfi_startproc
 206              		@ args = 0, pretend = 0, frame = 0
 207              		@ frame_needed = 0, uses_anonymous_args = 0
 208              		@ link register save eliminated.
 209              		.loc 11 32 19 is_stmt 0 view .LVU21
 210 0000 7047     		bx	lr
 211              		.cfi_endproc
 212              	.LFE5254:
 214              		.weak	_ZN7daisysp9DelayLineIfLj48000EED1Ev
 215              		.thumb_set _ZN7daisysp9DelayLineIfLj48000EED1Ev,_ZN7daisysp9DelayLineIfLj48000EED2Ev
 216              		.section	.text._Z13AudioCallbackPKfPfj,"ax",%progbits
 217              		.align	1
 218              		.p2align 2,,3
 219              		.global	_Z13AudioCallbackPKfPfj
 220              		.syntax unified
 221              		.thumb
 222              		.thumb_func
 223              		.fpu fpv5-d16
 225              	_Z13AudioCallbackPKfPfj:
 226              	.LVL7:
 227              	.LFB4681:
 228              		.file 12 "test-daisy-seed.cpp"
   1:test-daisy-seed.cpp **** #include "daisy_seed.h"
   2:test-daisy-seed.cpp **** #include "daisysp.h"
   3:test-daisy-seed.cpp **** 
   4:test-daisy-seed.cpp **** using namespace daisy;
   5:test-daisy-seed.cpp **** using namespace daisysp;
   6:test-daisy-seed.cpp **** 
   7:test-daisy-seed.cpp **** // ------------------------------------------------------------
   8:test-daisy-seed.cpp **** // structure d'un accord
   9:test-daisy-seed.cpp **** // ------------------------------------------------------------
  10:test-daisy-seed.cpp **** typedef struct
  11:test-daisy-seed.cpp **** {
  12:test-daisy-seed.cpp ****     float notes[3];
  13:test-daisy-seed.cpp ****     int size;
  14:test-daisy-seed.cpp **** } Chord;
  15:test-daisy-seed.cpp **** 
  16:test-daisy-seed.cpp **** // ------------------------------------------------------------
  17:test-daisy-seed.cpp **** // horloges
  18:test-daisy-seed.cpp **** // ------------------------------------------------------------
  19:test-daisy-seed.cpp **** uint32_t note_counter  = 0;
  20:test-daisy-seed.cpp **** uint32_t chord_counter = 0;
  21:test-daisy-seed.cpp **** uint32_t drum_counter  = 0;
  22:test-daisy-seed.cpp **** 
  23:test-daisy-seed.cpp **** uint32_t samples_per_note  = 0;
  24:test-daisy-seed.cpp **** uint32_t samples_per_chord = 0;
  25:test-daisy-seed.cpp **** uint32_t samples_per_step  = 0;
  26:test-daisy-seed.cpp **** 
  27:test-daisy-seed.cpp **** // ------------------------------------------------------------
  28:test-daisy-seed.cpp **** // hardware
  29:test-daisy-seed.cpp **** // ------------------------------------------------------------
  30:test-daisy-seed.cpp **** DaisySeed hw;
  31:test-daisy-seed.cpp **** 
  32:test-daisy-seed.cpp **** // ------------------------------------------------------------
  33:test-daisy-seed.cpp **** // effets + sidechain
  34:test-daisy-seed.cpp **** // ------------------------------------------------------------
  35:test-daisy-seed.cpp **** 
ARM GAS  C:\Users\louis\AppData\Local\Temp\ccBNZUOb.s 			page 15


  36:test-daisy-seed.cpp **** // delay mlodie
  37:test-daisy-seed.cpp **** DelayLine<float, 48000> delay_line;
  38:test-daisy-seed.cpp **** float delay_feedback = 0.35f;
  39:test-daisy-seed.cpp **** float delay_mix      = 0.25f;
  40:test-daisy-seed.cpp **** 
  41:test-daisy-seed.cpp **** // filtre svf mlodie
  42:test-daisy-seed.cpp **** Svf melody_filter;
  43:test-daisy-seed.cpp **** 
  44:test-daisy-seed.cpp **** // lfo cutoff mlodie
  45:test-daisy-seed.cpp **** Oscillator lfo;
  46:test-daisy-seed.cpp **** 
  47:test-daisy-seed.cpp **** // lfo volume accords
  48:test-daisy-seed.cpp **** Oscillator chord_lfo;
  49:test-daisy-seed.cpp **** float chord_lfo_depth = 0.4f;
  50:test-daisy-seed.cpp **** 
  51:test-daisy-seed.cpp **** // filtre global
  52:test-daisy-seed.cpp **** OnePole lp_filter;
  53:test-daisy-seed.cpp **** 
  54:test-daisy-seed.cpp **** // sidechain
  55:test-daisy-seed.cpp **** float sidechain_amount = 0.6f;
  56:test-daisy-seed.cpp **** float sidechain_env    = 0.0f;
  57:test-daisy-seed.cpp **** 
  58:test-daisy-seed.cpp **** // ------------------------------------------------------------
  59:test-daisy-seed.cpp **** // oscillateurs & enveloppes
  60:test-daisy-seed.cpp **** // ------------------------------------------------------------
  61:test-daisy-seed.cpp **** 
  62:test-daisy-seed.cpp **** // mlodie
  63:test-daisy-seed.cpp **** Oscillator osc;
  64:test-daisy-seed.cpp **** AdEnv env;
  65:test-daisy-seed.cpp **** 
  66:test-daisy-seed.cpp **** // accords
  67:test-daisy-seed.cpp **** Oscillator chord_osc1, chord_osc2, chord_osc3;
  68:test-daisy-seed.cpp **** AdEnv chord_env;
  69:test-daisy-seed.cpp **** 
  70:test-daisy-seed.cpp **** // drums : kick
  71:test-daisy-seed.cpp **** Oscillator kick_osc;
  72:test-daisy-seed.cpp **** AdEnv kick_env;
  73:test-daisy-seed.cpp **** 
  74:test-daisy-seed.cpp **** // drums : hihat
  75:test-daisy-seed.cpp **** WhiteNoise noise;
  76:test-daisy-seed.cpp **** Svf hihat_filter;
  77:test-daisy-seed.cpp **** AdEnv hihat_env;
  78:test-daisy-seed.cpp **** 
  79:test-daisy-seed.cpp **** // ------------------------------------------------------------
  80:test-daisy-seed.cpp **** // progression d'accords
  81:test-daisy-seed.cpp **** // ------------------------------------------------------------
  82:test-daisy-seed.cpp **** Chord chords[] =
  83:test-daisy-seed.cpp **** {
  84:test-daisy-seed.cpp ****     {{220.0f, 261.63f, 329.63f}, 3},
  85:test-daisy-seed.cpp ****     {{261.63f, 329.63f, 392.0f}, 3},
  86:test-daisy-seed.cpp ****     {{196.0f, 246.94f, 293.66f}, 3}
  87:test-daisy-seed.cpp **** };
  88:test-daisy-seed.cpp **** 
  89:test-daisy-seed.cpp **** const int chord_count = 3;
  90:test-daisy-seed.cpp **** int current_chord = 0;
  91:test-daisy-seed.cpp **** 
  92:test-daisy-seed.cpp **** // ------------------------------------------------------------
ARM GAS  C:\Users\louis\AppData\Local\Temp\ccBNZUOb.s 			page 16


  93:test-daisy-seed.cpp **** // audio callback
  94:test-daisy-seed.cpp **** // ------------------------------------------------------------
  95:test-daisy-seed.cpp **** void AudioCallback(AudioHandle::InterleavingInputBuffer in,
  96:test-daisy-seed.cpp ****                    AudioHandle::InterleavingOutputBuffer out,
  97:test-daisy-seed.cpp ****                    size_t size)
  98:test-daisy-seed.cpp **** {
 229              		.loc 12 98 1 is_stmt 1 view -0
 230              		.cfi_startproc
 231              		@ args = 0, pretend = 0, frame = 16
 232              		@ frame_needed = 0, uses_anonymous_args = 0
  99:test-daisy-seed.cpp ****     float melody_volume = 0.05f;
 233              		.loc 12 99 5 view .LVU23
 100:test-daisy-seed.cpp ****     float chord_volume  = 0.045f;
 234              		.loc 12 100 5 view .LVU24
 101:test-daisy-seed.cpp ****     float drum_volume   = 0.6f;
 235              		.loc 12 101 5 view .LVU25
 102:test-daisy-seed.cpp **** 
 103:test-daisy-seed.cpp ****     for(size_t i = 0; i < size; i += 2)
 236              		.loc 12 103 5 view .LVU26
 237              	.LBB261:
 238              		.loc 12 103 25 view .LVU27
 239 0000 002A     		cmp	r2, #0
 240 0002 00F04382 		beq	.L37
 241 0006 0023     		movs	r3, #0
 242 0008 013A     		subs	r2, r2, #1
 243              	.LVL8:
 244              		.loc 12 103 25 is_stmt 0 view .LVU28
 245              	.LBE261:
  98:test-daisy-seed.cpp ****     float melody_volume = 0.05f;
 246              		.loc 12 98 1 view .LVU29
 247 000a 2DE9F04F 		push	{r4, r5, r6, r7, r8, r9, r10, fp, lr}
 248              		.cfi_def_cfa_offset 36
 249              		.cfi_offset 4, -36
 250              		.cfi_offset 5, -32
 251              		.cfi_offset 6, -28
 252              		.cfi_offset 7, -24
 253              		.cfi_offset 8, -20
 254              		.cfi_offset 9, -16
 255              		.cfi_offset 10, -12
 256              		.cfi_offset 11, -8
 257              		.cfi_offset 14, -4
 258 000e 2DED088B 		vpush.64	{d8, d9, d10, d11}
 259              		.cfi_def_cfa_offset 68
 260              		.cfi_offset 80, -68
 261              		.cfi_offset 81, -64
 262              		.cfi_offset 82, -60
 263              		.cfi_offset 83, -56
 264              		.cfi_offset 84, -52
 265              		.cfi_offset 85, -48
 266              		.cfi_offset 86, -44
 267              		.cfi_offset 87, -40
 268 0012 85B0     		sub	sp, sp, #20
 269              		.cfi_def_cfa_offset 88
 270 0014 0D46     		mov	r5, r1
 271 0016 CD4C     		ldr	r4, .L43
 272              	.LBB375:
 273              		.loc 12 103 25 view .LVU30
ARM GAS  C:\Users\louis\AppData\Local\Temp\ccBNZUOb.s 			page 17


 274 0018 0193     		str	r3, [sp, #4]
 275 001a 5308     		lsrs	r3, r2, #1
 276 001c CC4E     		ldr	r6, .L43+4
 277 001e DFF8C8A3 		ldr	r10, .L43+156
 278 0022 DFF8C893 		ldr	r9, .L43+160
 279 0026 DFF8C883 		ldr	r8, .L43+164
 280 002a 0293     		str	r3, [sp, #8]
 281 002c 1AE0     		b	.L24
 282              	.LVL9:
 283              	.L18:
 284              	.LBB262:
 104:test-daisy-seed.cpp ****     {
 105:test-daisy-seed.cpp ****         // ================== mlodie ==================
 106:test-daisy-seed.cpp ****         float melody = osc.Process() * env.Process();
 107:test-daisy-seed.cpp **** 
 108:test-daisy-seed.cpp ****         float cutoff = 800.0f + lfo.Process() * 600.0f;
 109:test-daisy-seed.cpp ****         melody_filter.SetFreq(cutoff);
 110:test-daisy-seed.cpp ****         melody_filter.Process(melody);
 111:test-daisy-seed.cpp ****         melody = melody_filter.Low();
 112:test-daisy-seed.cpp **** 
 113:test-daisy-seed.cpp ****         float delayed = delay_line.Read();
 114:test-daisy-seed.cpp ****         delay_line.Write(melody + delayed * delay_feedback);
 115:test-daisy-seed.cpp ****         melody = melody * (1.0f - delay_mix) + delayed * delay_mix;
 116:test-daisy-seed.cpp ****         melody *= melody_volume;
 117:test-daisy-seed.cpp **** 
 118:test-daisy-seed.cpp ****         // ================== sidechain ==================
 119:test-daisy-seed.cpp ****         float melody_level = fabsf(melody);
 120:test-daisy-seed.cpp ****         float attack  = 0.01f;
 121:test-daisy-seed.cpp ****         float release = 0.0005f;
 122:test-daisy-seed.cpp **** 
 123:test-daisy-seed.cpp ****         if(melody_level > sidechain_env)
 124:test-daisy-seed.cpp ****             sidechain_env += attack * (melody_level - sidechain_env);
 125:test-daisy-seed.cpp ****         else
 126:test-daisy-seed.cpp ****             sidechain_env += release * (melody_level - sidechain_env);
 127:test-daisy-seed.cpp **** 
 128:test-daisy-seed.cpp ****         float sidechain_gain = 1.0f - sidechain_env * sidechain_amount;
 129:test-daisy-seed.cpp ****         if(sidechain_gain < 0.0f)
 130:test-daisy-seed.cpp ****             sidechain_gain = 0.0f;
 131:test-daisy-seed.cpp **** 
 132:test-daisy-seed.cpp ****         // ================== accords ==================
 133:test-daisy-seed.cpp ****         float chord_sig =
 134:test-daisy-seed.cpp ****             chord_osc1.Process() +
 135:test-daisy-seed.cpp ****             chord_osc2.Process() +
 136:test-daisy-seed.cpp ****             chord_osc3.Process();
 137:test-daisy-seed.cpp **** 
 138:test-daisy-seed.cpp ****         chord_sig *= chord_env.Process();
 139:test-daisy-seed.cpp **** 
 140:test-daisy-seed.cpp ****         float lfo_val = (chord_lfo.Process() + 1.0f) * 0.5f;
 141:test-daisy-seed.cpp ****         float modulated_chord_volume =
 142:test-daisy-seed.cpp ****             chord_volume * (1.0f - chord_lfo_depth + lfo_val * chord_lfo_depth);
 143:test-daisy-seed.cpp **** 
 144:test-daisy-seed.cpp ****         chord_sig *= modulated_chord_volume * sidechain_gain;
 145:test-daisy-seed.cpp **** 
 146:test-daisy-seed.cpp ****         // ================== drums ==================
 147:test-daisy-seed.cpp ****         float drums = 0.0f;
 148:test-daisy-seed.cpp **** 
 149:test-daisy-seed.cpp ****         // kick
ARM GAS  C:\Users\louis\AppData\Local\Temp\ccBNZUOb.s 			page 18


 150:test-daisy-seed.cpp ****         float kick_pitch = 50.0f + kick_env.Process() * 90.0f;
 151:test-daisy-seed.cpp ****         kick_osc.SetFreq(kick_pitch);
 152:test-daisy-seed.cpp ****         drums += kick_osc.Process() * kick_env.Process();
 153:test-daisy-seed.cpp **** 
 154:test-daisy-seed.cpp ****         // hihat
 155:test-daisy-seed.cpp ****         float hh = noise.Process();
 156:test-daisy-seed.cpp ****         hihat_filter.Process(hh);
 157:test-daisy-seed.cpp ****         hh = hihat_filter.High();
 158:test-daisy-seed.cpp ****         drums += hh * hihat_env.Process() * 0.3f;
 159:test-daisy-seed.cpp **** 
 160:test-daisy-seed.cpp ****         drums *= drum_volume;
 161:test-daisy-seed.cpp **** 
 162:test-daisy-seed.cpp ****         // ================== mix final ==================
 163:test-daisy-seed.cpp ****         float sig = melody + chord_sig + drums;
 164:test-daisy-seed.cpp ****         sig = lp_filter.Process(sig);
 165:test-daisy-seed.cpp **** 
 166:test-daisy-seed.cpp ****         out[i]     = sig;
 167:test-daisy-seed.cpp ****         out[i + 1] = sig;
 168:test-daisy-seed.cpp **** 
 169:test-daisy-seed.cpp ****         // ================== horloge mlodie ==================
 170:test-daisy-seed.cpp ****         note_counter++;
 171:test-daisy-seed.cpp ****         if(note_counter >= samples_per_note)
 172:test-daisy-seed.cpp ****         {
 173:test-daisy-seed.cpp ****             note_counter = 0;
 174:test-daisy-seed.cpp ****             if(rand() % 100 < 70)
 175:test-daisy-seed.cpp ****             {
 176:test-daisy-seed.cpp ****                 Chord &c = chords[current_chord];
 177:test-daisy-seed.cpp ****                 osc.SetFreq(c.notes[rand() % c.size] * 2.0f);
 178:test-daisy-seed.cpp ****                 env.Trigger();
 179:test-daisy-seed.cpp ****             }
 180:test-daisy-seed.cpp ****         }
 181:test-daisy-seed.cpp **** 
 182:test-daisy-seed.cpp ****         // ================== horloge accords ==================
 183:test-daisy-seed.cpp ****         chord_counter++;
 285              		.loc 12 183 9 is_stmt 1 view .LVU31
 286              		.loc 12 183 22 is_stmt 0 view .LVU32
 287 002e D8F80030 		ldr	r3, [r8]
 184:test-daisy-seed.cpp ****         if(chord_counter >= samples_per_chord)
 288              		.loc 12 184 9 view .LVU33
 289 0032 C84A     		ldr	r2, .L43+8
 183:test-daisy-seed.cpp ****         if(chord_counter >= samples_per_chord)
 290              		.loc 12 183 22 view .LVU34
 291 0034 0133     		adds	r3, r3, #1
 292              		.loc 12 184 9 view .LVU35
 293 0036 1268     		ldr	r2, [r2]
 183:test-daisy-seed.cpp ****         if(chord_counter >= samples_per_chord)
 294              		.loc 12 183 22 view .LVU36
 295 0038 C8F80030 		str	r3, [r8]
 296              		.loc 12 184 9 is_stmt 1 view .LVU37
 297 003c 9342     		cmp	r3, r2
 298 003e 80F0D981 		bcs	.L40
 299              	.L20:
 185:test-daisy-seed.cpp ****         {
 186:test-daisy-seed.cpp ****             chord_counter = 0;
 187:test-daisy-seed.cpp ****             current_chord = rand() % chord_count;
 188:test-daisy-seed.cpp **** 
 189:test-daisy-seed.cpp ****             chord_osc1.SetFreq(chords[current_chord].notes[0]);
ARM GAS  C:\Users\louis\AppData\Local\Temp\ccBNZUOb.s 			page 19


 190:test-daisy-seed.cpp ****             chord_osc2.SetFreq(chords[current_chord].notes[1] * 1.005f);
 191:test-daisy-seed.cpp ****             chord_osc3.SetFreq(chords[current_chord].notes[2] * 0.995f);
 192:test-daisy-seed.cpp **** 
 193:test-daisy-seed.cpp ****             chord_env.Trigger();
 194:test-daisy-seed.cpp ****         }
 195:test-daisy-seed.cpp **** 
 196:test-daisy-seed.cpp ****         // ================== horloge drums ==================
 197:test-daisy-seed.cpp ****         drum_counter++;
 300              		.loc 12 197 9 view .LVU38
 301              		.loc 12 197 21 is_stmt 0 view .LVU39
 302 0042 C54A     		ldr	r2, .L43+12
 303 0044 1368     		ldr	r3, [r2]
 304 0046 0133     		adds	r3, r3, #1
 305 0048 1360     		str	r3, [r2]
 198:test-daisy-seed.cpp ****         if(drum_counter >= samples_per_step)
 306              		.loc 12 198 9 is_stmt 1 view .LVU40
 307 004a C44A     		ldr	r2, .L43+16
 308 004c 1268     		ldr	r2, [r2]
 309 004e 9342     		cmp	r3, r2
 310 0050 80F06181 		bcs	.L41
 311              	.L22:
 312              	.LBE262:
 103:test-daisy-seed.cpp ****     {
 313              		.loc 12 103 5 discriminator 2 view .LVU41
 314              	.LVL10:
 103:test-daisy-seed.cpp ****     {
 315              		.loc 12 103 25 discriminator 2 view .LVU42
 316 0054 019A     		ldr	r2, [sp, #4]
 317 0056 0835     		adds	r5, r5, #8
 318 0058 0299     		ldr	r1, [sp, #8]
 319 005a 531C     		adds	r3, r2, #1
 320 005c 9142     		cmp	r1, r2
 321 005e 00F01082 		beq	.L42
 322 0062 0193     		str	r3, [sp, #4]
 323              	.LVL11:
 324              	.L24:
 325              	.LBB374:
 106:test-daisy-seed.cpp **** 
 326              		.loc 12 106 9 view .LVU43
 106:test-daisy-seed.cpp **** 
 327              		.loc 12 106 35 is_stmt 0 view .LVU44
 328 0064 BE48     		ldr	r0, .L43+20
 128:test-daisy-seed.cpp ****         if(sidechain_gain < 0.0f)
 329              		.loc 12 128 15 view .LVU45
 330 0066 F7EE008A 		vmov.f32	s17, #1.0e+0
 106:test-daisy-seed.cpp **** 
 331              		.loc 12 106 35 view .LVU46
 332 006a FFF7FEFF 		bl	_ZN7daisysp10Oscillator7ProcessEv
 333              	.LVL12:
 334 006e B0EE408A 		vmov.f32	s16, s0
 106:test-daisy-seed.cpp **** 
 335              		.loc 12 106 51 view .LVU47
 336 0072 BC48     		ldr	r0, .L43+24
 337 0074 FFF7FEFF 		bl	_ZN7daisysp5AdEnv7ProcessEv
 338              	.LVL13:
 108:test-daisy-seed.cpp ****         melody_filter.SetFreq(cutoff);
 339              		.loc 12 108 44 view .LVU48
ARM GAS  C:\Users\louis\AppData\Local\Temp\ccBNZUOb.s 			page 20


 340 0078 BB48     		ldr	r0, .L43+28
 106:test-daisy-seed.cpp **** 
 341              		.loc 12 106 52 view .LVU49
 342 007a 28EE008A 		vmul.f32	s16, s16, s0
 343              	.LVL14:
 108:test-daisy-seed.cpp ****         melody_filter.SetFreq(cutoff);
 344              		.loc 12 108 9 is_stmt 1 view .LVU50
 108:test-daisy-seed.cpp ****         melody_filter.SetFreq(cutoff);
 345              		.loc 12 108 44 is_stmt 0 view .LVU51
 346 007e FFF7FEFF 		bl	_ZN7daisysp10Oscillator7ProcessEv
 347              	.LVL15:
 108:test-daisy-seed.cpp ****         melody_filter.SetFreq(cutoff);
 348              		.loc 12 108 49 view .LVU52
 349 0082 9FEDBA7A 		vldr.32	s14, .L43+32
 350 0086 DFEDBA7A 		vldr.32	s15, .L43+36
 351              	.LVL16:
 109:test-daisy-seed.cpp ****         melody_filter.Process(melody);
 352              		.loc 12 109 9 is_stmt 1 view .LVU53
 109:test-daisy-seed.cpp ****         melody_filter.Process(melody);
 353              		.loc 12 109 30 is_stmt 0 view .LVU54
 354 008a BA48     		ldr	r0, .L43+40
 355 008c E0EE077A 		vfma.f32	s15, s0, s14
 356              	.LVL17:
 152:test-daisy-seed.cpp **** 
 357              		.loc 12 152 15 view .LVU55
 358 0090 DFEDB9AA 		vldr.32	s21, .L43+44
 359 0094 F0EE6A9A 		vmov.f32	s19, s21
 109:test-daisy-seed.cpp ****         melody_filter.Process(melody);
 360              		.loc 12 109 30 view .LVU56
 361 0098 B0EE670A 		vmov.f32	s0, s15
 362 009c FFF7FEFF 		bl	_ZN7daisysp3Svf7SetFreqEf
 363              	.LVL18:
 110:test-daisy-seed.cpp ****         melody = melody_filter.Low();
 364              		.loc 12 110 9 is_stmt 1 view .LVU57
 110:test-daisy-seed.cpp ****         melody = melody_filter.Low();
 365              		.loc 12 110 30 is_stmt 0 view .LVU58
 366 00a0 B0EE480A 		vmov.f32	s0, s16
 367 00a4 B348     		ldr	r0, .L43+40
 368 00a6 FFF7FEFF 		bl	_ZN7daisysp3Svf7ProcessEf
 369              	.LVL19:
 111:test-daisy-seed.cpp **** 
 370              		.loc 12 111 9 is_stmt 1 view .LVU59
 371              	.LBB263:
 372              	.LBI263:
  31:../../DaisySP//Source/Filters/svf.h ****     /** Initializes the filter
  32:../../DaisySP//Source/Filters/svf.h ****         float sample_rate - sample rate of the audio engine being run, and the frequency that the P
  33:../../DaisySP//Source/Filters/svf.h ****     */
  34:../../DaisySP//Source/Filters/svf.h ****     void Init(float sample_rate);
  35:../../DaisySP//Source/Filters/svf.h **** 
  36:../../DaisySP//Source/Filters/svf.h **** 
  37:../../DaisySP//Source/Filters/svf.h ****     /** 
  38:../../DaisySP//Source/Filters/svf.h ****         Process the input signal, updating all of the outputs.
  39:../../DaisySP//Source/Filters/svf.h ****     */
  40:../../DaisySP//Source/Filters/svf.h ****     void Process(float in);
  41:../../DaisySP//Source/Filters/svf.h **** 
  42:../../DaisySP//Source/Filters/svf.h **** 
  43:../../DaisySP//Source/Filters/svf.h ****     /** sets the frequency of the cutoff frequency. 
ARM GAS  C:\Users\louis\AppData\Local\Temp\ccBNZUOb.s 			page 21


  44:../../DaisySP//Source/Filters/svf.h ****         f must be between 0.0 and sample_rate / 3
  45:../../DaisySP//Source/Filters/svf.h ****     */
  46:../../DaisySP//Source/Filters/svf.h ****     void SetFreq(float f);
  47:../../DaisySP//Source/Filters/svf.h **** 
  48:../../DaisySP//Source/Filters/svf.h ****     /** sets the resonance of the filter.
  49:../../DaisySP//Source/Filters/svf.h ****         Must be between 0.0 and 1.0 to ensure stability.
  50:../../DaisySP//Source/Filters/svf.h ****     */
  51:../../DaisySP//Source/Filters/svf.h ****     void SetRes(float r);
  52:../../DaisySP//Source/Filters/svf.h **** 
  53:../../DaisySP//Source/Filters/svf.h ****     /** sets the drive of the filter 
  54:../../DaisySP//Source/Filters/svf.h ****         affects the response of the resonance of the filter
  55:../../DaisySP//Source/Filters/svf.h ****     */
  56:../../DaisySP//Source/Filters/svf.h ****     void SetDrive(float d);
  57:../../DaisySP//Source/Filters/svf.h ****     /** lowpass output
  58:../../DaisySP//Source/Filters/svf.h ****         \return low pass output of the filter
  59:../../DaisySP//Source/Filters/svf.h ****     */
  60:../../DaisySP//Source/Filters/svf.h ****     inline float Low() { return out_low_; }
 373              		.loc 8 60 18 view .LVU60
 374              	.LBB264:
 375              		.loc 8 60 26 view .LVU61
 376              	.LBE264:
 377              	.LBE263:
 115:test-daisy-seed.cpp ****         melody *= melody_volume;
 378              		.loc 12 115 33 is_stmt 0 view .LVU62
 379 00aa B44B     		ldr	r3, .L43+48
 380              	.LBB267:
 381              	.LBB268:
  33:../../DaisySP//Source/Utility/delayline.h ****     /** initializes the delay line by clearing the values within, and setting delay to 1 sample.
  34:../../DaisySP//Source/Utility/delayline.h ****     */
  35:../../DaisySP//Source/Utility/delayline.h ****     void Init() { Reset(); }
  36:../../DaisySP//Source/Utility/delayline.h ****     /** clears buffer, sets write ptr to 0, and delay to 1 sample.
  37:../../DaisySP//Source/Utility/delayline.h ****     */
  38:../../DaisySP//Source/Utility/delayline.h ****     void Reset()
  39:../../DaisySP//Source/Utility/delayline.h ****     {
  40:../../DaisySP//Source/Utility/delayline.h ****         for(size_t i = 0; i < max_size; i++)
  41:../../DaisySP//Source/Utility/delayline.h ****         {
  42:../../DaisySP//Source/Utility/delayline.h ****             line_[i] = T(0);
  43:../../DaisySP//Source/Utility/delayline.h ****         }
  44:../../DaisySP//Source/Utility/delayline.h ****         write_ptr_ = 0;
  45:../../DaisySP//Source/Utility/delayline.h ****         delay_     = 1;
  46:../../DaisySP//Source/Utility/delayline.h ****     }
  47:../../DaisySP//Source/Utility/delayline.h **** 
  48:../../DaisySP//Source/Utility/delayline.h ****     /** sets the delay time in samples
  49:../../DaisySP//Source/Utility/delayline.h ****         If a float is passed in, a fractional component will be calculated for interpolating the de
  50:../../DaisySP//Source/Utility/delayline.h ****     */
  51:../../DaisySP//Source/Utility/delayline.h ****     inline void SetDelay(size_t delay)
  52:../../DaisySP//Source/Utility/delayline.h ****     {
  53:../../DaisySP//Source/Utility/delayline.h ****         frac_  = 0.0f;
  54:../../DaisySP//Source/Utility/delayline.h ****         delay_ = delay < max_size ? delay : max_size - 1;
  55:../../DaisySP//Source/Utility/delayline.h ****     }
  56:../../DaisySP//Source/Utility/delayline.h **** 
  57:../../DaisySP//Source/Utility/delayline.h ****     /** sets the delay time in samples
  58:../../DaisySP//Source/Utility/delayline.h ****         If a float is passed in, a fractional component will be calculated for interpolating the de
  59:../../DaisySP//Source/Utility/delayline.h ****     */
  60:../../DaisySP//Source/Utility/delayline.h ****     inline void SetDelay(float delay)
  61:../../DaisySP//Source/Utility/delayline.h ****     {
  62:../../DaisySP//Source/Utility/delayline.h ****         int32_t int_delay = static_cast<int32_t>(delay);
ARM GAS  C:\Users\louis\AppData\Local\Temp\ccBNZUOb.s 			page 22


  63:../../DaisySP//Source/Utility/delayline.h ****         frac_             = delay - static_cast<float>(int_delay);
  64:../../DaisySP//Source/Utility/delayline.h ****         delay_ = static_cast<size_t>(int_delay) < max_size ? int_delay
  65:../../DaisySP//Source/Utility/delayline.h ****                                                            : max_size - 1;
  66:../../DaisySP//Source/Utility/delayline.h ****     }
  67:../../DaisySP//Source/Utility/delayline.h **** 
  68:../../DaisySP//Source/Utility/delayline.h ****     /** writes the sample of type T to the delay line, and advances the write ptr
  69:../../DaisySP//Source/Utility/delayline.h ****     */
  70:../../DaisySP//Source/Utility/delayline.h ****     inline void Write(const T sample)
  71:../../DaisySP//Source/Utility/delayline.h ****     {
  72:../../DaisySP//Source/Utility/delayline.h ****         line_[write_ptr_] = sample;
  73:../../DaisySP//Source/Utility/delayline.h ****         write_ptr_        = (write_ptr_ - 1 + max_size) % max_size;
  74:../../DaisySP//Source/Utility/delayline.h ****     }
  75:../../DaisySP//Source/Utility/delayline.h **** 
  76:../../DaisySP//Source/Utility/delayline.h ****     /** returns the next sample of type T in the delay line, interpolated if necessary.
  77:../../DaisySP//Source/Utility/delayline.h ****     */
  78:../../DaisySP//Source/Utility/delayline.h ****     inline const T Read() const
  79:../../DaisySP//Source/Utility/delayline.h ****     {
  80:../../DaisySP//Source/Utility/delayline.h ****         T a = line_[(write_ptr_ + delay_) % max_size];
 382              		.loc 11 80 43 view .LVU63
 383 00ac B44A     		ldr	r2, .L43+52
 384 00ae 4BF6803C 		movw	ip, #48000
 385              	.LBE268:
 386              	.LBE267:
 115:test-daisy-seed.cpp ****         melody *= melody_volume;
 387              		.loc 12 115 33 view .LVU64
 388 00b2 93ED007A 		vldr.32	s14, [r3]
 389 00b6 B7EE006A 		vmov.f32	s12, #1.0e+0
 390              	.LBB276:
 391              	.LBB265:
 392              		.loc 8 60 33 view .LVU65
 393 00ba AE4B     		ldr	r3, .L43+40
 394              	.LBE265:
 395              	.LBE276:
 396              	.LBB277:
 397              	.LBB278:
  73:../../DaisySP//Source/Utility/delayline.h ****     }
 398              		.loc 11 73 45 view .LVU66
 399 00bc 4BF67F31 		movw	r1, #47999
 400              	.LBE278:
 401              	.LBE277:
 402              	.LBB285:
 403              	.LBB269:
  81:../../DaisySP//Source/Utility/delayline.h ****         T b = line_[(write_ptr_ + delay_ + 1) % max_size];
  82:../../DaisySP//Source/Utility/delayline.h ****         return a + (b - a) * frac_;
 404              		.loc 11 82 30 view .LVU67
 405 00c0 94ED004A 		vldr.32	s8, [r4]
 406              	.LBE269:
 407              	.LBE285:
 408              	.LBB286:
 409              	.LBB266:
 410              		.loc 8 60 33 view .LVU68
 411 00c4 93ED0C5A 		vldr.32	s10, [r3, #48]
 412              	.LVL20:
 413              		.loc 8 60 33 view .LVU69
 414              	.LBE266:
 415              	.LBE286:
 113:test-daisy-seed.cpp ****         delay_line.Write(melody + delayed * delay_feedback);
ARM GAS  C:\Users\louis\AppData\Local\Temp\ccBNZUOb.s 			page 23


 416              		.loc 12 113 9 is_stmt 1 view .LVU70
 417              	.LBB287:
 418              	.LBI267:
  78:../../DaisySP//Source/Utility/delayline.h ****     {
 419              		.loc 11 78 20 view .LVU71
 420              	.LBE287:
 115:test-daisy-seed.cpp ****         melody *= melody_volume;
 421              		.loc 12 115 33 is_stmt 0 view .LVU72
 422 00c8 36EE476A 		vsub.f32	s12, s12, s14
 114:test-daisy-seed.cpp ****         melody = melody * (1.0f - delay_mix) + delayed * delay_mix;
 423              		.loc 12 114 25 view .LVU73
 424 00cc AD4B     		ldr	r3, .L43+56
 116:test-daisy-seed.cpp **** 
 425              		.loc 12 116 16 view .LVU74
 426 00ce 9FEDAE8A 		vldr.32	s16, .L43+60
 114:test-daisy-seed.cpp ****         melody = melody * (1.0f - delay_mix) + delayed * delay_mix;
 427              		.loc 12 114 25 view .LVU75
 428 00d2 D3ED004A 		vldr.32	s9, [r3]
 123:test-daisy-seed.cpp ****             sidechain_env += attack * (melody_level - sidechain_env);
 429              		.loc 12 123 25 view .LVU76
 430 00d6 AD4B     		ldr	r3, .L43+64
 431 00d8 D3ED007A 		vldr.32	s15, [r3]
 432              	.LBB288:
 433              	.LBB270:
  80:../../DaisySP//Source/Utility/delayline.h ****         T b = line_[(write_ptr_ + delay_ + 1) % max_size];
 434              		.loc 11 80 33 view .LVU77
 435 00dc D4E90103 		ldrd	r0, r3, [r4, #4]
 436 00e0 0344     		add	r3, r3, r0
 437              	.LBE270:
 438              	.LBE288:
 439              	.LBB289:
 440              	.LBB279:
  73:../../DaisySP//Source/Utility/delayline.h ****     }
 441              		.loc 11 73 45 view .LVU78
 442 00e2 0144     		add	r1, r1, r0
  72:../../DaisySP//Source/Utility/delayline.h ****         write_ptr_        = (write_ptr_ - 1 + max_size) % max_size;
 443              		.loc 11 72 27 view .LVU79
 444 00e4 04EB8000 		add	r0, r4, r0, lsl #2
 445              	.LBE279:
 446              	.LBE289:
 447              	.LBB290:
 448              	.LBB271:
  80:../../DaisySP//Source/Utility/delayline.h ****         T b = line_[(write_ptr_ + delay_ + 1) % max_size];
 449              		.loc 11 80 43 view .LVU80
 450 00e8 A2FB037E 		umull	r7, lr, r2, r3
  81:../../DaisySP//Source/Utility/delayline.h ****         return a + (b - a) * frac_;
 451              		.loc 11 81 42 view .LVU81
 452 00ec 03F1010B 		add	fp, r3, #1
  80:../../DaisySP//Source/Utility/delayline.h ****         T b = line_[(write_ptr_ + delay_ + 1) % max_size];
 453              		.loc 11 80 43 view .LVU82
 454 00f0 4FEA9E2E 		lsr	lr, lr, #10
 455 00f4 0CFB1E33 		mls	r3, ip, lr, r3
  80:../../DaisySP//Source/Utility/delayline.h ****         T b = line_[(write_ptr_ + delay_ + 1) % max_size];
 456              		.loc 11 80 11 view .LVU83
 457 00f8 04EB8303 		add	r3, r4, r3, lsl #2
 458 00fc D3ED036A 		vldr.32	s13, [r3, #12]
 459              	.LVL21:
ARM GAS  C:\Users\louis\AppData\Local\Temp\ccBNZUOb.s 			page 24


  81:../../DaisySP//Source/Utility/delayline.h ****         return a + (b - a) * frac_;
 460              		.loc 11 81 47 view .LVU84
 461 0100 A2FB0B73 		umull	r7, r3, r2, fp
 462              	.LBE271:
 463              	.LBE290:
 464              	.LBB291:
 465              	.LBB280:
  73:../../DaisySP//Source/Utility/delayline.h ****     }
 466              		.loc 11 73 57 view .LVU85
 467 0104 A2FB0172 		umull	r7, r2, r2, r1
 468              	.LBE280:
 469              	.LBE291:
 470              	.LBB292:
 471              	.LBB272:
  81:../../DaisySP//Source/Utility/delayline.h ****         return a + (b - a) * frac_;
 472              		.loc 11 81 47 view .LVU86
 473 0108 9B0A     		lsrs	r3, r3, #10
 474              	.LBE272:
 475              	.LBE292:
 476              	.LBB293:
 477              	.LBB281:
  73:../../DaisySP//Source/Utility/delayline.h ****     }
 478              		.loc 11 73 57 view .LVU87
 479 010a 920A     		lsrs	r2, r2, #10
 480              	.LBE281:
 481              	.LBE293:
 482              	.LBB294:
 483              	.LBB273:
  81:../../DaisySP//Source/Utility/delayline.h ****         return a + (b - a) * frac_;
 484              		.loc 11 81 47 view .LVU88
 485 010c 0CFB13BB 		mls	fp, ip, r3, fp
 486              	.LVL22:
  81:../../DaisySP//Source/Utility/delayline.h ****         return a + (b - a) * frac_;
 487              		.loc 11 81 47 view .LVU89
 488              	.LBE273:
 489              	.LBE294:
 128:test-daisy-seed.cpp ****         if(sidechain_gain < 0.0f)
 490              		.loc 12 128 15 view .LVU90
 491 0110 9F4B     		ldr	r3, .L43+68
 492              	.LBB295:
 493              	.LBB282:
  73:../../DaisySP//Source/Utility/delayline.h ****     }
 494              		.loc 11 73 57 view .LVU91
 495 0112 0CFB1211 		mls	r1, ip, r2, r1
 496              	.LBE282:
 497              	.LBE295:
 498              	.LBB296:
 499              	.LBB274:
  81:../../DaisySP//Source/Utility/delayline.h ****         return a + (b - a) * frac_;
 500              		.loc 11 81 11 view .LVU92
 501 0116 04EB8B0B 		add	fp, r4, fp, lsl #2
 502              	.LBE274:
 503              	.LBE296:
 504              	.LBB297:
 505              	.LBB283:
  73:../../DaisySP//Source/Utility/delayline.h ****     }
 506              		.loc 11 73 27 view .LVU93
ARM GAS  C:\Users\louis\AppData\Local\Temp\ccBNZUOb.s 			page 25


 507 011a 6160     		str	r1, [r4, #4]
 508              	.LVL23:
  73:../../DaisySP//Source/Utility/delayline.h ****     }
 509              		.loc 11 73 27 view .LVU94
 510              	.LBE283:
 511              	.LBE297:
 512              	.LBB298:
 513              	.LBB275:
 514              		.loc 11 82 23 view .LVU95
 515 011c DBED035A 		vldr.32	s11, [fp, #12]
 516 0120 75EEE65A 		vsub.f32	s11, s11, s13
 517              		.loc 11 82 30 view .LVU96
 518 0124 E5EE846A 		vfma.f32	s13, s11, s8
 519              	.LVL24:
 520              		.loc 11 82 30 view .LVU97
 521              	.LBE275:
 522              	.LBE298:
 114:test-daisy-seed.cpp ****         melody = melody * (1.0f - delay_mix) + delayed * delay_mix;
 523              		.loc 12 114 9 is_stmt 1 view .LVU98
 114:test-daisy-seed.cpp ****         melody = melody * (1.0f - delay_mix) + delayed * delay_mix;
 524              		.loc 12 114 25 is_stmt 0 view .LVU99
 525 0128 F0EE455A 		vmov.f32	s11, s10
 115:test-daisy-seed.cpp ****         melody *= melody_volume;
 526              		.loc 12 115 56 view .LVU100
 527 012c 27EE267A 		vmul.f32	s14, s14, s13
 114:test-daisy-seed.cpp ****         melody = melody * (1.0f - delay_mix) + delayed * delay_mix;
 528              		.loc 12 114 25 view .LVU101
 529 0130 E4EEA65A 		vfma.f32	s11, s9, s13
 530              	.LVL25:
 531              	.LBB299:
 532              	.LBI277:
  70:../../DaisySP//Source/Utility/delayline.h ****     {
 533              		.loc 11 70 17 is_stmt 1 view .LVU102
  70:../../DaisySP//Source/Utility/delayline.h ****     {
 534              		.loc 11 70 17 is_stmt 0 view .LVU103
 535              	.LBE299:
 115:test-daisy-seed.cpp ****         melody *= melody_volume;
 536              		.loc 12 115 9 is_stmt 1 view .LVU104
 115:test-daisy-seed.cpp ****         melody *= melody_volume;
 537              		.loc 12 115 16 is_stmt 0 view .LVU105
 538 0134 A6EE057A 		vfma.f32	s14, s12, s10
 539              	.LVL26:
 116:test-daisy-seed.cpp **** 
 540              		.loc 12 116 9 is_stmt 1 view .LVU106
 541              	.LBB300:
 542              	.LBB284:
  72:../../DaisySP//Source/Utility/delayline.h ****         write_ptr_        = (write_ptr_ - 1 + max_size) % max_size;
 543              		.loc 11 72 27 is_stmt 0 view .LVU107
 544 0138 C0ED035A 		vstr.32	s11, [r0, #12]
 545              	.LBE284:
 546              	.LBE300:
 134:test-daisy-seed.cpp ****             chord_osc2.Process() +
 547              		.loc 12 134 31 view .LVU108
 548 013c 9548     		ldr	r0, .L43+72
 116:test-daisy-seed.cpp **** 
 549              		.loc 12 116 16 view .LVU109
 550 013e 27EE088A 		vmul.f32	s16, s14, s16
ARM GAS  C:\Users\louis\AppData\Local\Temp\ccBNZUOb.s 			page 26


 551              	.LVL27:
 119:test-daisy-seed.cpp ****         float attack  = 0.01f;
 552              		.loc 12 119 9 is_stmt 1 view .LVU110
 119:test-daisy-seed.cpp ****         float attack  = 0.01f;
 553              		.loc 12 119 15 is_stmt 0 view .LVU111
 554 0142 B0EEC87A 		vabs.f32	s14, s16
 555              	.LVL28:
 120:test-daisy-seed.cpp ****         float release = 0.0005f;
 556              		.loc 12 120 9 is_stmt 1 view .LVU112
 121:test-daisy-seed.cpp **** 
 557              		.loc 12 121 9 view .LVU113
 123:test-daisy-seed.cpp ****             sidechain_env += attack * (melody_level - sidechain_env);
 558              		.loc 12 123 9 view .LVU114
 559 0146 F4EEC77A 		vcmpe.f32	s15, s14
 124:test-daisy-seed.cpp ****         else
 560              		.loc 12 124 53 is_stmt 0 view .LVU115
 561 014a 37EE677A 		vsub.f32	s14, s14, s15
 562              	.LVL29:
 124:test-daisy-seed.cpp ****         else
 563              		.loc 12 124 13 is_stmt 1 view .LVU116
 123:test-daisy-seed.cpp ****             sidechain_env += attack * (melody_level - sidechain_env);
 564              		.loc 12 123 9 is_stmt 0 view .LVU117
 565 014e F1EE10FA 		vmrs	APSR_nzcv, FPSCR
 124:test-daisy-seed.cpp ****         else
 566              		.loc 12 124 27 view .LVU118
 567 0152 4CBF     		ite	mi
 568 0154 DFED906A 		vldrmi.32	s13, .L43+76
 569              	.LVL30:
 126:test-daisy-seed.cpp **** 
 570              		.loc 12 126 13 is_stmt 1 view .LVU119
 126:test-daisy-seed.cpp **** 
 571              		.loc 12 126 27 is_stmt 0 view .LVU120
 572 0158 DFED906A 		vldrpl.32	s13, .L43+80
 573 015c E7EE267A 		vfma.f32	s15, s14, s13
 128:test-daisy-seed.cpp ****         if(sidechain_gain < 0.0f)
 574              		.loc 12 128 15 view .LVU121
 575 0160 93ED007A 		vldr.32	s14, [r3]
 576 0164 894B     		ldr	r3, .L43+64
 577 0166 E7EE678A 		vfms.f32	s17, s14, s15
 578 016a C3ED007A 		vstr.32	s15, [r3]
 128:test-daisy-seed.cpp ****         if(sidechain_gain < 0.0f)
 579              		.loc 12 128 9 is_stmt 1 view .LVU122
 129:test-daisy-seed.cpp ****             sidechain_gain = 0.0f;
 580              		.loc 12 129 9 is_stmt 0 view .LVU123
 581 016e F5EEC08A 		vcmpe.f32	s17, #0
 128:test-daisy-seed.cpp ****         if(sidechain_gain < 0.0f)
 582              		.loc 12 128 15 view .LVU124
 583 0172 B0EE68BA 		vmov.f32	s22, s17
 584              	.LVL31:
 129:test-daisy-seed.cpp ****             sidechain_gain = 0.0f;
 585              		.loc 12 129 9 is_stmt 1 view .LVU125
 586 0176 F1EE10FA 		vmrs	APSR_nzcv, FPSCR
 130:test-daisy-seed.cpp **** 
 587              		.loc 12 130 28 is_stmt 0 view .LVU126
 588 017a 48BF     		it	mi
 589 017c 9FED7EBA 		vldrmi.32	s22, .L43+44
 590              	.LVL32:
ARM GAS  C:\Users\louis\AppData\Local\Temp\ccBNZUOb.s 			page 27


 133:test-daisy-seed.cpp ****             chord_osc1.Process() +
 591              		.loc 12 133 9 is_stmt 1 view .LVU127
 134:test-daisy-seed.cpp ****             chord_osc2.Process() +
 592              		.loc 12 134 31 is_stmt 0 view .LVU128
 593 0180 FFF7FEFF 		bl	_ZN7daisysp10Oscillator7ProcessEv
 594              	.LVL33:
 595 0184 B0EE409A 		vmov.f32	s18, s0
 135:test-daisy-seed.cpp ****             chord_osc3.Process();
 596              		.loc 12 135 31 view .LVU129
 597 0188 8548     		ldr	r0, .L43+84
 598 018a FFF7FEFF 		bl	_ZN7daisysp10Oscillator7ProcessEv
 599              	.LVL34:
 136:test-daisy-seed.cpp **** 
 600              		.loc 12 136 31 view .LVU130
 601 018e 8548     		ldr	r0, .L43+88
 134:test-daisy-seed.cpp ****             chord_osc2.Process() +
 602              		.loc 12 134 34 view .LVU131
 603 0190 39EE009A 		vadd.f32	s18, s18, s0
 136:test-daisy-seed.cpp **** 
 604              		.loc 12 136 31 view .LVU132
 605 0194 FFF7FEFF 		bl	_ZN7daisysp10Oscillator7ProcessEv
 606              	.LVL35:
 138:test-daisy-seed.cpp **** 
 607              		.loc 12 138 39 view .LVU133
 608 0198 8348     		ldr	r0, .L43+92
 136:test-daisy-seed.cpp **** 
 609              		.loc 12 136 32 view .LVU134
 610 019a 39EE009A 		vadd.f32	s18, s18, s0
 611              	.LVL36:
 138:test-daisy-seed.cpp **** 
 612              		.loc 12 138 9 is_stmt 1 view .LVU135
 138:test-daisy-seed.cpp **** 
 613              		.loc 12 138 39 is_stmt 0 view .LVU136
 614 019e FFF7FEFF 		bl	_ZN7daisysp5AdEnv7ProcessEv
 615              	.LVL37:
 140:test-daisy-seed.cpp ****         float modulated_chord_volume =
 616              		.loc 12 140 43 view .LVU137
 617 01a2 8248     		ldr	r0, .L43+96
 138:test-daisy-seed.cpp **** 
 618              		.loc 12 138 19 view .LVU138
 619 01a4 29EE009A 		vmul.f32	s18, s18, s0
 620              	.LVL38:
 140:test-daisy-seed.cpp ****         float modulated_chord_volume =
 621              		.loc 12 140 9 is_stmt 1 view .LVU139
 140:test-daisy-seed.cpp ****         float modulated_chord_volume =
 622              		.loc 12 140 43 is_stmt 0 view .LVU140
 623 01a8 FFF7FEFF 		bl	_ZN7daisysp10Oscillator7ProcessEv
 624              	.LVL39:
 141:test-daisy-seed.cpp ****             chord_volume * (1.0f - chord_lfo_depth + lfo_val * chord_lfo_depth);
 625              		.loc 12 141 9 is_stmt 1 view .LVU141
 142:test-daisy-seed.cpp **** 
 626              		.loc 12 142 34 is_stmt 0 view .LVU142
 627 01ac 804B     		ldr	r3, .L43+100
 140:test-daisy-seed.cpp ****         float modulated_chord_volume =
 628              		.loc 12 140 46 view .LVU143
 629 01ae F7EE007A 		vmov.f32	s15, #1.0e+0
 140:test-daisy-seed.cpp ****         float modulated_chord_volume =
ARM GAS  C:\Users\louis\AppData\Local\Temp\ccBNZUOb.s 			page 28


 630              		.loc 12 140 56 view .LVU144
 631 01b2 B6EE006A 		vmov.f32	s12, #5.0e-1
 141:test-daisy-seed.cpp ****             chord_volume * (1.0f - chord_lfo_depth + lfo_val * chord_lfo_depth);
 632              		.loc 12 141 15 view .LVU145
 633 01b6 DFED7F6A 		vldr.32	s13, .L43+104
 142:test-daisy-seed.cpp **** 
 634              		.loc 12 142 34 view .LVU146
 635 01ba 93ED007A 		vldr.32	s14, [r3]
 140:test-daisy-seed.cpp ****         float modulated_chord_volume =
 636              		.loc 12 140 46 view .LVU147
 637 01be 30EE270A 		vadd.f32	s0, s0, s15
 638              	.LVL40:
 150:test-daisy-seed.cpp ****         kick_osc.SetFreq(kick_pitch);
 639              		.loc 12 150 52 view .LVU148
 640 01c2 7D48     		ldr	r0, .L43+108
 142:test-daisy-seed.cpp **** 
 641              		.loc 12 142 34 view .LVU149
 642 01c4 77EEC78A 		vsub.f32	s17, s15, s14
 140:test-daisy-seed.cpp ****         float modulated_chord_volume =
 643              		.loc 12 140 56 view .LVU150
 644 01c8 20EE060A 		vmul.f32	s0, s0, s12
 645              	.LVL41:
 142:test-daisy-seed.cpp **** 
 646              		.loc 12 142 52 view .LVU151
 647 01cc F0EE687A 		vmov.f32	s15, s17
 648 01d0 E7EE007A 		vfma.f32	s15, s14, s0
 649              	.LVL42:
 144:test-daisy-seed.cpp **** 
 650              		.loc 12 144 9 is_stmt 1 view .LVU152
 141:test-daisy-seed.cpp ****             chord_volume * (1.0f - chord_lfo_depth + lfo_val * chord_lfo_depth);
 651              		.loc 12 141 15 is_stmt 0 view .LVU153
 652 01d4 67EEA68A 		vmul.f32	s17, s15, s13
 653              	.LVL43:
 150:test-daisy-seed.cpp ****         kick_osc.SetFreq(kick_pitch);
 654              		.loc 12 150 52 view .LVU154
 655 01d8 FFF7FEFF 		bl	_ZN7daisysp5AdEnv7ProcessEv
 656              	.LVL44:
 150:test-daisy-seed.cpp ****         kick_osc.SetFreq(kick_pitch);
 657              		.loc 12 150 57 view .LVU155
 658 01dc 9FED777A 		vldr.32	s14, .L43+112
 659 01e0 DFED777A 		vldr.32	s15, .L43+116
 660              	.LBB301:
 661              	.LBB302:
  25:../../DaisySP//Source/Synthesis/oscillator.h ****     /** Choices for output waveforms, POLYBLEP are appropriately labeled. Others are naive forms.
  26:../../DaisySP//Source/Synthesis/oscillator.h ****     */
  27:../../DaisySP//Source/Synthesis/oscillator.h ****     enum
  28:../../DaisySP//Source/Synthesis/oscillator.h ****     {
  29:../../DaisySP//Source/Synthesis/oscillator.h ****         WAVE_SIN,
  30:../../DaisySP//Source/Synthesis/oscillator.h ****         WAVE_TRI,
  31:../../DaisySP//Source/Synthesis/oscillator.h ****         WAVE_SAW,
  32:../../DaisySP//Source/Synthesis/oscillator.h ****         WAVE_RAMP,
  33:../../DaisySP//Source/Synthesis/oscillator.h ****         WAVE_SQUARE,
  34:../../DaisySP//Source/Synthesis/oscillator.h ****         WAVE_POLYBLEP_TRI,
  35:../../DaisySP//Source/Synthesis/oscillator.h ****         WAVE_POLYBLEP_SAW,
  36:../../DaisySP//Source/Synthesis/oscillator.h ****         WAVE_POLYBLEP_SQUARE,
  37:../../DaisySP//Source/Synthesis/oscillator.h ****         WAVE_LAST,
  38:../../DaisySP//Source/Synthesis/oscillator.h ****     };
ARM GAS  C:\Users\louis\AppData\Local\Temp\ccBNZUOb.s 			page 29


  39:../../DaisySP//Source/Synthesis/oscillator.h **** 
  40:../../DaisySP//Source/Synthesis/oscillator.h **** 
  41:../../DaisySP//Source/Synthesis/oscillator.h ****     /** Initializes the Oscillator
  42:../../DaisySP//Source/Synthesis/oscillator.h **** 
  43:../../DaisySP//Source/Synthesis/oscillator.h ****         \param sample_rate - sample rate of the audio engine being run, and the frequency that the 
  44:../../DaisySP//Source/Synthesis/oscillator.h **** 
  45:../../DaisySP//Source/Synthesis/oscillator.h ****         Defaults:
  46:../../DaisySP//Source/Synthesis/oscillator.h ****         - freq_ = 100 Hz
  47:../../DaisySP//Source/Synthesis/oscillator.h ****         - amp_ = 0.5
  48:../../DaisySP//Source/Synthesis/oscillator.h ****         - waveform_ = sine wave.
  49:../../DaisySP//Source/Synthesis/oscillator.h ****     */
  50:../../DaisySP//Source/Synthesis/oscillator.h ****     void Init(float sample_rate)
  51:../../DaisySP//Source/Synthesis/oscillator.h ****     {
  52:../../DaisySP//Source/Synthesis/oscillator.h ****         sr_        = sample_rate;
  53:../../DaisySP//Source/Synthesis/oscillator.h ****         sr_recip_  = 1.0f / sample_rate;
  54:../../DaisySP//Source/Synthesis/oscillator.h ****         freq_      = 100.0f;
  55:../../DaisySP//Source/Synthesis/oscillator.h ****         amp_       = 0.5f;
  56:../../DaisySP//Source/Synthesis/oscillator.h ****         pw_        = 0.5f;
  57:../../DaisySP//Source/Synthesis/oscillator.h ****         phase_     = 0.0f;
  58:../../DaisySP//Source/Synthesis/oscillator.h ****         phase_inc_ = CalcPhaseInc(freq_);
  59:../../DaisySP//Source/Synthesis/oscillator.h ****         waveform_  = WAVE_SIN;
  60:../../DaisySP//Source/Synthesis/oscillator.h ****         eoc_       = true;
  61:../../DaisySP//Source/Synthesis/oscillator.h ****         eor_       = true;
  62:../../DaisySP//Source/Synthesis/oscillator.h ****     }
  63:../../DaisySP//Source/Synthesis/oscillator.h **** 
  64:../../DaisySP//Source/Synthesis/oscillator.h **** 
  65:../../DaisySP//Source/Synthesis/oscillator.h ****     /** Changes the frequency of the Oscillator, and recalculates phase increment.
  66:../../DaisySP//Source/Synthesis/oscillator.h ****     */
  67:../../DaisySP//Source/Synthesis/oscillator.h ****     inline void SetFreq(const float f)
  68:../../DaisySP//Source/Synthesis/oscillator.h ****     {
  69:../../DaisySP//Source/Synthesis/oscillator.h ****         freq_      = f;
 662              		.loc 7 69 20 view .LVU156
 663 01e4 774B     		ldr	r3, .L43+120
 664              	.LBE302:
 665              	.LBE301:
 144:test-daisy-seed.cpp **** 
 666              		.loc 12 144 45 view .LVU157
 667 01e6 68EE8B8A 		vmul.f32	s17, s17, s22
 668              	.LVL45:
 147:test-daisy-seed.cpp **** 
 669              		.loc 12 147 9 is_stmt 1 view .LVU158
 150:test-daisy-seed.cpp ****         kick_osc.SetFreq(kick_pitch);
 670              		.loc 12 150 9 view .LVU159
 150:test-daisy-seed.cpp ****         kick_osc.SetFreq(kick_pitch);
 671              		.loc 12 150 57 is_stmt 0 view .LVU160
 672 01ea E0EE077A 		vfma.f32	s15, s0, s14
 673              	.LVL46:
 151:test-daisy-seed.cpp ****         drums += kick_osc.Process() * kick_env.Process();
 674              		.loc 12 151 9 is_stmt 1 view .LVU161
 675              	.LBB305:
 676              	.LBI301:
  67:../../DaisySP//Source/Synthesis/oscillator.h ****     {
 677              		.loc 7 67 17 view .LVU162
 678              	.LBB303:
 679              		.loc 7 69 9 view .LVU163
 680              		.loc 7 69 20 is_stmt 0 view .LVU164
 681 01ee 1F46     		mov	r7, r3
ARM GAS  C:\Users\louis\AppData\Local\Temp\ccBNZUOb.s 			page 30


  70:../../DaisySP//Source/Synthesis/oscillator.h ****         phase_inc_ = CalcPhaseInc(f);
 682              		.loc 7 70 34 view .LVU165
 683 01f0 1846     		mov	r0, r3
 684 01f2 B0EE670A 		vmov.f32	s0, s15
  69:../../DaisySP//Source/Synthesis/oscillator.h ****         phase_inc_ = CalcPhaseInc(f);
 685              		.loc 7 69 20 view .LVU166
 686 01f6 C3ED027A 		vstr.32	s15, [r3, #8]
 687              		.loc 7 70 9 is_stmt 1 view .LVU167
 688              		.loc 7 70 34 is_stmt 0 view .LVU168
 689 01fa FFF7FEFF 		bl	_ZN7daisysp10Oscillator12CalcPhaseIncEf
 690              	.LVL47:
 691              		.loc 7 70 34 view .LVU169
 692              	.LBE303:
 693              	.LBE305:
 152:test-daisy-seed.cpp **** 
 694              		.loc 12 152 34 view .LVU170
 695 01fe 3846     		mov	r0, r7
 696              	.LBB306:
 697              	.LBB304:
 698              		.loc 7 70 20 view .LVU171
 699 0200 87ED070A 		vstr.32	s0, [r7, #28]
 700              	.LVL48:
 701              		.loc 7 70 20 view .LVU172
 702              	.LBE304:
 703              	.LBE306:
 152:test-daisy-seed.cpp **** 
 704              		.loc 12 152 9 is_stmt 1 view .LVU173
 152:test-daisy-seed.cpp **** 
 705              		.loc 12 152 34 is_stmt 0 view .LVU174
 706 0204 FFF7FEFF 		bl	_ZN7daisysp10Oscillator7ProcessEv
 707              	.LVL49:
 152:test-daisy-seed.cpp **** 
 708              		.loc 12 152 55 view .LVU175
 709 0208 6B48     		ldr	r0, .L43+108
 152:test-daisy-seed.cpp **** 
 710              		.loc 12 152 34 view .LVU176
 711 020a B0EE40AA 		vmov.f32	s20, s0
 152:test-daisy-seed.cpp **** 
 712              		.loc 12 152 55 view .LVU177
 713 020e FFF7FEFF 		bl	_ZN7daisysp5AdEnv7ProcessEv
 714              	.LVL50:
 715              	.LBB307:
 716              	.LBB308:
  25:../../DaisySP//Source/Noise/whitenoise.h ****     /** Initializes the WhiteNoise object
  26:../../DaisySP//Source/Noise/whitenoise.h ****     */
  27:../../DaisySP//Source/Noise/whitenoise.h ****     void Init()
  28:../../DaisySP//Source/Noise/whitenoise.h ****     {
  29:../../DaisySP//Source/Noise/whitenoise.h ****         amp_      = 1.0f;
  30:../../DaisySP//Source/Noise/whitenoise.h ****         randseed_ = 1;
  31:../../DaisySP//Source/Noise/whitenoise.h ****     }
  32:../../DaisySP//Source/Noise/whitenoise.h **** 
  33:../../DaisySP//Source/Noise/whitenoise.h ****     /** sets the amplitude of the noise output
  34:../../DaisySP//Source/Noise/whitenoise.h ****     */
  35:../../DaisySP//Source/Noise/whitenoise.h ****     inline void SetAmp(float a) { amp_ = a; }
  36:../../DaisySP//Source/Noise/whitenoise.h ****     /** returns a new sample of noise in the range of -amp_ to amp_
  37:../../DaisySP//Source/Noise/whitenoise.h ****     */
  38:../../DaisySP//Source/Noise/whitenoise.h ****     inline float Process()
ARM GAS  C:\Users\louis\AppData\Local\Temp\ccBNZUOb.s 			page 31


  39:../../DaisySP//Source/Noise/whitenoise.h ****     {
  40:../../DaisySP//Source/Noise/whitenoise.h ****         randseed_ *= 16807;
 717              		.loc 10 40 19 view .LVU178
 718 0212 7368     		ldr	r3, [r6, #4]
 719 0214 44F2A712 		movw	r2, #16807
  41:../../DaisySP//Source/Noise/whitenoise.h ****         return (randseed_ * coeff_) * amp_;
 720              		.loc 10 41 39 view .LVU179
 721 0218 D6ED007A 		vldr.32	s15, [r6]
 722              	.LBE308:
 723              	.LBE307:
 152:test-daisy-seed.cpp **** 
 724              		.loc 12 152 15 view .LVU180
 725 021c EAEE009A 		vfma.f32	s19, s20, s0
 726              	.LVL51:
 155:test-daisy-seed.cpp ****         hihat_filter.Process(hh);
 727              		.loc 12 155 9 is_stmt 1 view .LVU181
 728              	.LBB311:
 729              	.LBI307:
  38:../../DaisySP//Source/Noise/whitenoise.h ****     {
 730              		.loc 10 38 18 view .LVU182
 731              	.LBB309:
  40:../../DaisySP//Source/Noise/whitenoise.h ****         return (randseed_ * coeff_) * amp_;
 732              		.loc 10 40 9 view .LVU183
 733              	.LBE309:
 734              	.LBE311:
 156:test-daisy-seed.cpp ****         hh = hihat_filter.High();
 735              		.loc 12 156 29 is_stmt 0 view .LVU184
 736 0220 6948     		ldr	r0, .L43+124
 737              	.LBB312:
 738              	.LBB310:
  40:../../DaisySP//Source/Noise/whitenoise.h ****         return (randseed_ * coeff_) * amp_;
 739              		.loc 10 40 19 view .LVU185
 740 0222 02FB03F3 		mul	r3, r2, r3
 741              		.loc 10 41 27 view .LVU186
 742 0226 00EE103A 		vmov	s0, r3	@ int
  40:../../DaisySP//Source/Noise/whitenoise.h ****         return (randseed_ * coeff_) * amp_;
 743              		.loc 10 40 19 view .LVU187
 744 022a 7360     		str	r3, [r6, #4]
 745              		.loc 10 41 27 view .LVU188
 746 022c BAEEE00A 		vcvt.f32.s32	s0, s0, #31
 747              		.loc 10 41 9 is_stmt 1 view .LVU189
 748              	.LVL52:
 749              		.loc 10 41 9 is_stmt 0 view .LVU190
 750              	.LBE310:
 751              	.LBE312:
 156:test-daisy-seed.cpp ****         hh = hihat_filter.High();
 752              		.loc 12 156 9 is_stmt 1 view .LVU191
 156:test-daisy-seed.cpp ****         hh = hihat_filter.High();
 753              		.loc 12 156 29 is_stmt 0 view .LVU192
 754 0230 20EE270A 		vmul.f32	s0, s0, s15
 755 0234 FFF7FEFF 		bl	_ZN7daisysp3Svf7ProcessEf
 756              	.LVL53:
 157:test-daisy-seed.cpp ****         drums += hh * hihat_env.Process() * 0.3f;
 757              		.loc 12 157 9 is_stmt 1 view .LVU193
 758              	.LBB313:
 759              	.LBI313:
  61:../../DaisySP//Source/Filters/svf.h ****     /** highpass output
ARM GAS  C:\Users\louis\AppData\Local\Temp\ccBNZUOb.s 			page 32


  62:../../DaisySP//Source/Filters/svf.h ****         \return high pass output of the filter
  63:../../DaisySP//Source/Filters/svf.h ****     */
  64:../../DaisySP//Source/Filters/svf.h ****     inline float High() { return out_high_; }
 760              		.loc 8 64 18 view .LVU194
 761              	.LBB314:
 762              		.loc 8 64 27 view .LVU195
 763              		.loc 8 64 34 is_stmt 0 view .LVU196
 764 0238 634B     		ldr	r3, .L43+124
 765              	.LBE314:
 766              	.LBE313:
 158:test-daisy-seed.cpp **** 
 767              		.loc 12 158 40 view .LVU197
 768 023a 6448     		ldr	r0, .L43+128
 769              	.LBB316:
 770              	.LBB315:
 771              		.loc 8 64 34 view .LVU198
 772 023c 93ED0DAA 		vldr.32	s20, [r3, #52]
 773              	.LVL54:
 774              		.loc 8 64 34 view .LVU199
 775              	.LBE315:
 776              	.LBE316:
 158:test-daisy-seed.cpp **** 
 777              		.loc 12 158 9 is_stmt 1 view .LVU200
 158:test-daisy-seed.cpp **** 
 778              		.loc 12 158 40 is_stmt 0 view .LVU201
 779 0240 FFF7FEFF 		bl	_ZN7daisysp5AdEnv7ProcessEv
 780              	.LVL55:
 158:test-daisy-seed.cpp **** 
 781              		.loc 12 158 15 view .LVU202
 782 0244 DFED626A 		vldr.32	s13, .L43+132
 163:test-daisy-seed.cpp ****         sig = lp_filter.Process(sig);
 783              		.loc 12 163 28 view .LVU203
 784 0248 A8EE898A 		vfma.f32	s16, s17, s18
 785              	.LVL56:
 158:test-daisy-seed.cpp **** 
 786              		.loc 12 158 21 view .LVU204
 787 024c 20EE0A0A 		vmul.f32	s0, s0, s20
 163:test-daisy-seed.cpp ****         sig = lp_filter.Process(sig);
 788              		.loc 12 163 15 view .LVU205
 789 0250 9FED606A 		vldr.32	s12, .L43+136
 790              	.LBB317:
 791              	.LBB318:
  31:../../DaisySP//Source/Filters/onepole.h **** 
  32:../../DaisySP//Source/Filters/onepole.h ****     /**
  33:../../DaisySP//Source/Filters/onepole.h ****      * @brief Operational modes of the filter
  34:../../DaisySP//Source/Filters/onepole.h ****      * - LOW_PASS = cuts out high frequency sound, lets low frequency sound pass through
  35:../../DaisySP//Source/Filters/onepole.h ****      * - HIGH_PASS = cuts out low frequency sound, lets high frequency sound pass through
  36:../../DaisySP//Source/Filters/onepole.h ****      */
  37:../../DaisySP//Source/Filters/onepole.h ****     enum FilterMode
  38:../../DaisySP//Source/Filters/onepole.h ****     {
  39:../../DaisySP//Source/Filters/onepole.h ****         FILTER_MODE_LOW_PASS,
  40:../../DaisySP//Source/Filters/onepole.h ****         FILTER_MODE_HIGH_PASS
  41:../../DaisySP//Source/Filters/onepole.h ****     };
  42:../../DaisySP//Source/Filters/onepole.h **** 
  43:../../DaisySP//Source/Filters/onepole.h ****     /** Initializes the module */
  44:../../DaisySP//Source/Filters/onepole.h ****     void Init()
  45:../../DaisySP//Source/Filters/onepole.h ****     {
ARM GAS  C:\Users\louis\AppData\Local\Temp\ccBNZUOb.s 			page 33


  46:../../DaisySP//Source/Filters/onepole.h ****         Reset();
  47:../../DaisySP//Source/Filters/onepole.h ****         mode_ = FILTER_MODE_LOW_PASS;
  48:../../DaisySP//Source/Filters/onepole.h ****     }
  49:../../DaisySP//Source/Filters/onepole.h **** 
  50:../../DaisySP//Source/Filters/onepole.h ****     /** Reset the module to its default state */
  51:../../DaisySP//Source/Filters/onepole.h ****     inline void Reset() { state_ = 0.0f; }
  52:../../DaisySP//Source/Filters/onepole.h **** 
  53:../../DaisySP//Source/Filters/onepole.h ****     /** Set the filter cutoff frequency
  54:../../DaisySP//Source/Filters/onepole.h ****     *   \param freq Cutoff frequency. Valid range from 0 to .497f
  55:../../DaisySP//Source/Filters/onepole.h ****     */
  56:../../DaisySP//Source/Filters/onepole.h ****     inline void SetFrequency(float freq)
  57:../../DaisySP//Source/Filters/onepole.h ****     {
  58:../../DaisySP//Source/Filters/onepole.h ****         // Clip coefficient to about 100.
  59:../../DaisySP//Source/Filters/onepole.h ****         freq = freq < 0.497f ? freq : 0.497f;
  60:../../DaisySP//Source/Filters/onepole.h **** 
  61:../../DaisySP//Source/Filters/onepole.h ****         g_  = tanf(PI_F * freq);
  62:../../DaisySP//Source/Filters/onepole.h ****         gi_ = 1.f / (1.f + g_);
  63:../../DaisySP//Source/Filters/onepole.h ****     }
  64:../../DaisySP//Source/Filters/onepole.h **** 
  65:../../DaisySP//Source/Filters/onepole.h ****     /** Set the filter mode
  66:../../DaisySP//Source/Filters/onepole.h ****     *   \param mode Filter mode. Can be lowpass or highpass
  67:../../DaisySP//Source/Filters/onepole.h ****     */
  68:../../DaisySP//Source/Filters/onepole.h ****     inline void SetFilterMode(FilterMode mode) { mode_ = mode; }
  69:../../DaisySP//Source/Filters/onepole.h **** 
  70:../../DaisySP//Source/Filters/onepole.h ****     /** Process audio through the filter
  71:../../DaisySP//Source/Filters/onepole.h ****     *   \param in The next sample to be processed
  72:../../DaisySP//Source/Filters/onepole.h ****     */
  73:../../DaisySP//Source/Filters/onepole.h ****     inline float Process(float in)
  74:../../DaisySP//Source/Filters/onepole.h ****     {
  75:../../DaisySP//Source/Filters/onepole.h ****         float lp;
  76:../../DaisySP//Source/Filters/onepole.h ****         lp     = (g_ * in + state_) * gi_;
 792              		.loc 9 76 19 view .LVU206
 793 0254 9AED007A 		vldr.32	s14, [r10]
 794              		.loc 9 76 27 view .LVU207
 795 0258 DAED027A 		vldr.32	s15, [r10, #8]
 796              	.LBE318:
 797              	.LBE317:
 158:test-daisy-seed.cpp **** 
 798              		.loc 12 158 15 view .LVU208
 799 025c E0EE269A 		vfma.f32	s19, s0, s13
 800              	.LVL57:
 160:test-daisy-seed.cpp **** 
 801              		.loc 12 160 9 is_stmt 1 view .LVU209
 163:test-daisy-seed.cpp ****         sig = lp_filter.Process(sig);
 802              		.loc 12 163 9 view .LVU210
 803              	.LBB321:
 804              	.LBB319:
 805              		.loc 9 76 16 is_stmt 0 view .LVU211
 806 0260 DAED016A 		vldr.32	s13, [r10, #4]
  77:../../DaisySP//Source/Filters/onepole.h ****         state_ = g_ * (in - lp) + lp;
  78:../../DaisySP//Source/Filters/onepole.h **** 
  79:../../DaisySP//Source/Filters/onepole.h ****         switch(mode_)
 807              		.loc 9 79 16 view .LVU212
 808 0264 9AF80C30 		ldrb	r3, [r10, #12]	@ zero_extendqisi2
 809              	.LBE319:
 810              	.LBE321:
 163:test-daisy-seed.cpp ****         sig = lp_filter.Process(sig);
ARM GAS  C:\Users\louis\AppData\Local\Temp\ccBNZUOb.s 			page 34


 811              		.loc 12 163 15 view .LVU213
 812 0268 A9EE868A 		vfma.f32	s16, s19, s12
 813              	.LVL58:
 164:test-daisy-seed.cpp **** 
 814              		.loc 12 164 9 is_stmt 1 view .LVU214
 815              	.LBB322:
 816              	.LBI317:
  73:../../DaisySP//Source/Filters/onepole.h ****     {
 817              		.loc 9 73 18 view .LVU215
 818              	.LBB320:
  75:../../DaisySP//Source/Filters/onepole.h ****         lp     = (g_ * in + state_) * gi_;
 819              		.loc 9 75 9 view .LVU216
  76:../../DaisySP//Source/Filters/onepole.h ****         state_ = g_ * (in - lp) + lp;
 820              		.loc 9 76 9 view .LVU217
  76:../../DaisySP//Source/Filters/onepole.h ****         state_ = g_ * (in - lp) + lp;
 821              		.loc 9 76 27 is_stmt 0 view .LVU218
 822 026c E8EE077A 		vfma.f32	s15, s16, s14
  76:../../DaisySP//Source/Filters/onepole.h ****         state_ = g_ * (in - lp) + lp;
 823              		.loc 9 76 16 view .LVU219
 824 0270 67EEA67A 		vmul.f32	s15, s15, s13
 825              	.LVL59:
  77:../../DaisySP//Source/Filters/onepole.h **** 
 826              		.loc 9 77 9 is_stmt 1 view .LVU220
  77:../../DaisySP//Source/Filters/onepole.h **** 
 827              		.loc 9 77 27 is_stmt 0 view .LVU221
 828 0274 38EE678A 		vsub.f32	s16, s16, s15
 829              	.LVL60:
  77:../../DaisySP//Source/Filters/onepole.h **** 
 830              		.loc 9 77 33 view .LVU222
 831 0278 F0EE676A 		vmov.f32	s13, s15
 832 027c E7EE086A 		vfma.f32	s13, s14, s16
  77:../../DaisySP//Source/Filters/onepole.h **** 
 833              		.loc 9 77 16 view .LVU223
 834 0280 CAED026A 		vstr.32	s13, [r10, #8]
 835              		.loc 9 79 9 is_stmt 1 view .LVU224
 836 0284 13B1     		cbz	r3, .L16
 837 0286 012B     		cmp	r3, #1
 838 0288 48FE2A7A 		vseleq.f32	s15, s16, s21
 839              	.LVL61:
 840              	.L16:
 841              		.loc 9 79 9 is_stmt 0 view .LVU225
 842              	.LBE320:
 843              	.LBE322:
 166:test-daisy-seed.cpp ****         out[i + 1] = sig;
 844              		.loc 12 166 9 is_stmt 1 view .LVU226
 170:test-daisy-seed.cpp ****         if(note_counter >= samples_per_note)
 845              		.loc 12 170 21 is_stmt 0 view .LVU227
 846 028c D9F80030 		ldr	r3, [r9]
 847              	.LBB323:
 171:test-daisy-seed.cpp ****         {
 848              		.loc 12 171 9 view .LVU228
 849 0290 514A     		ldr	r2, .L43+140
 850              	.LBE323:
 170:test-daisy-seed.cpp ****         if(note_counter >= samples_per_note)
 851              		.loc 12 170 21 view .LVU229
 852 0292 0133     		adds	r3, r3, #1
 166:test-daisy-seed.cpp ****         out[i + 1] = sig;
ARM GAS  C:\Users\louis\AppData\Local\Temp\ccBNZUOb.s 			page 35


 853              		.loc 12 166 20 view .LVU230
 854 0294 C5ED007A 		vstr.32	s15, [r5]
 167:test-daisy-seed.cpp **** 
 855              		.loc 12 167 9 is_stmt 1 view .LVU231
 856              	.LBB339:
 171:test-daisy-seed.cpp ****         {
 857              		.loc 12 171 9 is_stmt 0 view .LVU232
 858 0298 1268     		ldr	r2, [r2]
 859              	.LBE339:
 167:test-daisy-seed.cpp **** 
 860              		.loc 12 167 20 view .LVU233
 861 029a C5ED017A 		vstr.32	s15, [r5, #4]
 170:test-daisy-seed.cpp ****         if(note_counter >= samples_per_note)
 862              		.loc 12 170 9 is_stmt 1 view .LVU234
 863              	.LBB340:
 171:test-daisy-seed.cpp ****         {
 864              		.loc 12 171 9 is_stmt 0 view .LVU235
 865 029e 9342     		cmp	r3, r2
 866              	.LBE340:
 170:test-daisy-seed.cpp ****         if(note_counter >= samples_per_note)
 867              		.loc 12 170 21 view .LVU236
 868 02a0 C9F80030 		str	r3, [r9]
 171:test-daisy-seed.cpp ****         {
 869              		.loc 12 171 9 is_stmt 1 view .LVU237
 870              	.LBB341:
 871 02a4 FFF4C3AE 		bcc	.L18
 872              	.LBB324:
 173:test-daisy-seed.cpp ****             if(rand() % 100 < 70)
 873              		.loc 12 173 13 view .LVU238
 173:test-daisy-seed.cpp ****             if(rand() % 100 < 70)
 874              		.loc 12 173 26 is_stmt 0 view .LVU239
 875 02a8 0023     		movs	r3, #0
 876 02aa C9F80030 		str	r3, [r9]
 174:test-daisy-seed.cpp ****             {
 877              		.loc 12 174 13 is_stmt 1 view .LVU240
 878              	.LBB325:
 174:test-daisy-seed.cpp ****             {
 879              		.loc 12 174 20 is_stmt 0 view .LVU241
 880 02ae FFF7FEFF 		bl	rand
 881              	.LVL62:
 174:test-daisy-seed.cpp ****             {
 882              		.loc 12 174 23 view .LVU242
 883 02b2 4A4A     		ldr	r2, .L43+144
 884 02b4 82FB0032 		smull	r3, r2, r2, r0
 885 02b8 C317     		asrs	r3, r0, #31
 886 02ba C3EB6213 		rsb	r3, r3, r2, asr #5
 887 02be 6422     		movs	r2, #100
 888 02c0 02FB1300 		mls	r0, r2, r3, r0
 174:test-daisy-seed.cpp ****             {
 889              		.loc 12 174 13 view .LVU243
 890 02c4 4528     		cmp	r0, #69
 891 02c6 3FF7B2AE 		bgt	.L18
 892              	.LBB326:
 176:test-daisy-seed.cpp ****                 osc.SetFreq(c.notes[rand() % c.size] * 2.0f);
 893              		.loc 12 176 17 is_stmt 1 view .LVU244
 176:test-daisy-seed.cpp ****                 osc.SetFreq(c.notes[rand() % c.size] * 2.0f);
 894              		.loc 12 176 48 is_stmt 0 view .LVU245
ARM GAS  C:\Users\louis\AppData\Local\Temp\ccBNZUOb.s 			page 36


 895 02ca 454B     		ldr	r3, .L43+148
 896              	.LBB327:
 897              	.LBB328:
  69:../../DaisySP//Source/Synthesis/oscillator.h ****         phase_inc_ = CalcPhaseInc(f);
 898              		.loc 7 69 20 view .LVU246
 899 02cc DFF890B0 		ldr	fp, .L43+20
 900              	.LBE328:
 901              	.LBE327:
 176:test-daisy-seed.cpp ****                 osc.SetFreq(c.notes[rand() % c.size] * 2.0f);
 902              		.loc 12 176 48 view .LVU247
 903 02d0 1968     		ldr	r1, [r3]
 904 02d2 0391     		str	r1, [sp, #12]
 905              	.LVL63:
 177:test-daisy-seed.cpp ****                 env.Trigger();
 906              		.loc 12 177 17 is_stmt 1 view .LVU248
 177:test-daisy-seed.cpp ****                 env.Trigger();
 907              		.loc 12 177 41 is_stmt 0 view .LVU249
 908 02d4 FFF7FEFF 		bl	rand
 909              	.LVL64:
 177:test-daisy-seed.cpp ****                 env.Trigger();
 910              		.loc 12 177 52 view .LVU250
 911 02d8 424A     		ldr	r2, .L43+152
 177:test-daisy-seed.cpp ****                 env.Trigger();
 912              		.loc 12 177 41 view .LVU251
 913 02da 0346     		mov	r3, r0
 177:test-daisy-seed.cpp ****                 env.Trigger();
 914              		.loc 12 177 48 view .LVU252
 915 02dc 0399     		ldr	r1, [sp, #12]
 916 02de 02EB0110 		add	r0, r2, r1, lsl #4
 177:test-daisy-seed.cpp ****                 env.Trigger();
 917              		.loc 12 177 44 view .LVU253
 918 02e2 D0F80CC0 		ldr	ip, [r0, #12]
 919              	.LBB332:
 920              	.LBB329:
 921              		.loc 7 70 34 view .LVU254
 922 02e6 5846     		mov	r0, fp
 923              	.LBE329:
 924              	.LBE332:
 177:test-daisy-seed.cpp ****                 env.Trigger();
 925              		.loc 12 177 44 view .LVU255
 926 02e8 93FBFCFE 		sdiv	lr, r3, ip
 927 02ec 0EFB1C33 		mls	r3, lr, ip, r3
 177:test-daisy-seed.cpp ****                 env.Trigger();
 928              		.loc 12 177 52 view .LVU256
 929 02f0 03EB8101 		add	r1, r3, r1, lsl #2
 930 02f4 02EB8101 		add	r1, r2, r1, lsl #2
 177:test-daisy-seed.cpp ****                 env.Trigger();
 931              		.loc 12 177 28 view .LVU257
 932 02f8 91ED000A 		vldr.32	s0, [r1]
 933 02fc 30EE000A 		vadd.f32	s0, s0, s0
 934              	.LVL65:
 935              	.LBB333:
 936              	.LBI327:
  67:../../DaisySP//Source/Synthesis/oscillator.h ****     {
 937              		.loc 7 67 17 is_stmt 1 view .LVU258
 938              	.LBB330:
  69:../../DaisySP//Source/Synthesis/oscillator.h ****         phase_inc_ = CalcPhaseInc(f);
ARM GAS  C:\Users\louis\AppData\Local\Temp\ccBNZUOb.s 			page 37


 939              		.loc 7 69 9 view .LVU259
  69:../../DaisySP//Source/Synthesis/oscillator.h ****         phase_inc_ = CalcPhaseInc(f);
 940              		.loc 7 69 20 is_stmt 0 view .LVU260
 941 0300 8BED020A 		vstr.32	s0, [fp, #8]
 942              		.loc 7 70 9 is_stmt 1 view .LVU261
 943              		.loc 7 70 34 is_stmt 0 view .LVU262
 944 0304 FFF7FEFF 		bl	_ZN7daisysp10Oscillator12CalcPhaseIncEf
 945              	.LVL66:
 946              		.loc 7 70 34 view .LVU263
 947              	.LBE330:
 948              	.LBE333:
 949              	.LBB334:
 950              	.LBB335:
  44:../../DaisySP//Source/Control/adenv.h ****     /** Initializes the ad envelope.
  45:../../DaisySP//Source/Control/adenv.h **** 
  46:../../DaisySP//Source/Control/adenv.h ****         Defaults:
  47:../../DaisySP//Source/Control/adenv.h ****             - current segment = idle
  48:../../DaisySP//Source/Control/adenv.h ****             - curve = linear
  49:../../DaisySP//Source/Control/adenv.h ****             - phase = 0
  50:../../DaisySP//Source/Control/adenv.h ****             - min = 0
  51:../../DaisySP//Source/Control/adenv.h ****             - max = 1
  52:../../DaisySP//Source/Control/adenv.h **** 
  53:../../DaisySP//Source/Control/adenv.h ****         \param sample_rate      sample rate of the audio engine being run
  54:../../DaisySP//Source/Control/adenv.h ****     */
  55:../../DaisySP//Source/Control/adenv.h ****     void Init(float sample_rate);
  56:../../DaisySP//Source/Control/adenv.h **** 
  57:../../DaisySP//Source/Control/adenv.h ****     /** Processes the current sample of the envelope. This should be called once
  58:../../DaisySP//Source/Control/adenv.h ****         per sample period.
  59:../../DaisySP//Source/Control/adenv.h ****         \return the current envelope value.
  60:../../DaisySP//Source/Control/adenv.h ****     */
  61:../../DaisySP//Source/Control/adenv.h ****     float Process();
  62:../../DaisySP//Source/Control/adenv.h **** 
  63:../../DaisySP//Source/Control/adenv.h ****     /** Starts or retriggers the envelope.*/
  64:../../DaisySP//Source/Control/adenv.h ****     inline void Trigger() { trigger_ = 1; }
 951              		.loc 6 64 38 view .LVU264
 952 0308 164B     		ldr	r3, .L43+24
 953 030a 0122     		movs	r2, #1
 954              	.LBE335:
 955              	.LBE334:
 956              	.LBB337:
 957              	.LBB331:
 958              		.loc 7 70 20 view .LVU265
 959 030c 8BED070A 		vstr.32	s0, [fp, #28]
 960              	.LVL67:
 961              		.loc 7 70 20 view .LVU266
 962              	.LBE331:
 963              	.LBE337:
 178:test-daisy-seed.cpp ****             }
 964              		.loc 12 178 17 is_stmt 1 view .LVU267
 965              	.LBB338:
 966              	.LBI334:
 967              		.loc 6 64 17 view .LVU268
 968              	.LBB336:
 969              		.loc 6 64 29 view .LVU269
 970              		.loc 6 64 38 is_stmt 0 view .LVU270
 971 0310 83F83420 		strb	r2, [r3, #52]
 972              		.loc 6 64 43 view .LVU271
ARM GAS  C:\Users\louis\AppData\Local\Temp\ccBNZUOb.s 			page 38


 973 0314 8BE6     		b	.L18
 974              	.LVL68:
 975              	.L41:
 976              		.loc 6 64 43 view .LVU272
 977              	.LBE336:
 978              	.LBE338:
 979              	.LBE326:
 980              	.LBE325:
 981              	.LBE324:
 982              	.LBE341:
 199:test-daisy-seed.cpp ****         {
 200:test-daisy-seed.cpp ****             drum_counter = 0;
 983              		.loc 12 200 13 is_stmt 1 view .LVU273
 984              		.loc 12 200 26 is_stmt 0 view .LVU274
 985 0316 104A     		ldr	r2, .L43+12
 986 0318 0023     		movs	r3, #0
 987              	.LBB342:
 988              	.LBB343:
 989              		.loc 6 64 38 view .LVU275
 990 031a 4FF0010B 		mov	fp, #1
 991              	.LBE343:
 992              	.LBE342:
 993              		.loc 12 200 26 view .LVU276
 994 031e 1360     		str	r3, [r2]
 201:test-daisy-seed.cpp **** 
 202:test-daisy-seed.cpp ****             // kick  chaque temps
 203:test-daisy-seed.cpp ****             kick_env.Trigger();
 995              		.loc 12 203 13 is_stmt 1 view .LVU277
 996              	.LVL69:
 997              	.LBB345:
 998              	.LBI342:
 999              		.loc 6 64 17 view .LVU278
 1000              	.LBB344:
 1001              		.loc 6 64 29 view .LVU279
 1002              		.loc 6 64 38 is_stmt 0 view .LVU280
 1003 0320 254B     		ldr	r3, .L43+108
 1004 0322 83F834B0 		strb	fp, [r3, #52]
 1005              	.LVL70:
 1006              		.loc 6 64 38 view .LVU281
 1007              	.LBE344:
 1008              	.LBE345:
 204:test-daisy-seed.cpp **** 
 205:test-daisy-seed.cpp ****             // hihat alatoire
 206:test-daisy-seed.cpp ****             if(rand() % 100 < 70)
 1009              		.loc 12 206 13 is_stmt 1 view .LVU282
 1010              		.loc 12 206 20 is_stmt 0 view .LVU283
 1011 0326 FFF7FEFF 		bl	rand
 1012              	.LVL71:
 1013              		.loc 12 206 23 view .LVU284
 1014 032a 2C4A     		ldr	r2, .L43+144
 1015 032c 82FB0032 		smull	r3, r2, r2, r0
 1016 0330 C317     		asrs	r3, r0, #31
 1017 0332 C3EB6213 		rsb	r3, r3, r2, asr #5
 1018 0336 6422     		movs	r2, #100
 1019 0338 02FB1300 		mls	r0, r2, r3, r0
 1020              		.loc 12 206 13 view .LVU285
 1021 033c 4528     		cmp	r0, #69
ARM GAS  C:\Users\louis\AppData\Local\Temp\ccBNZUOb.s 			page 39


 1022 033e 3FF789AE 		bgt	.L22
 207:test-daisy-seed.cpp ****                 hihat_env.Trigger();
 1023              		.loc 12 207 17 is_stmt 1 view .LVU286
 1024              	.LVL72:
 1025              	.LBB346:
 1026              	.LBI346:
 1027              		.loc 6 64 17 view .LVU287
 1028              	.LBB347:
 1029              		.loc 6 64 29 view .LVU288
 1030              		.loc 6 64 38 is_stmt 0 view .LVU289
 1031 0342 224B     		ldr	r3, .L43+128
 1032 0344 83F834B0 		strb	fp, [r3, #52]
 1033              		.loc 6 64 43 view .LVU290
 1034 0348 84E6     		b	.L22
 1035              	.L44:
 1036 034a 00BF     		.align	2
 1037              	.L43:
 1038 034c 00000000 		.word	delay_line
 1039 0350 00000000 		.word	.LANCHOR16
 1040 0354 00000000 		.word	.LANCHOR25
 1041 0358 00000000 		.word	.LANCHOR26
 1042 035c 00000000 		.word	.LANCHOR27
 1043 0360 00000000 		.word	.LANCHOR0
 1044 0364 00000000 		.word	.LANCHOR1
 1045 0368 00000000 		.word	.LANCHOR2
 1046 036c 00001644 		.word	1142292480
 1047 0370 00004844 		.word	1145569280
 1048 0374 00000000 		.word	.LANCHOR3
 1049 0378 00000000 		.word	0
 1050 037c 00000000 		.word	.LANCHOR5
 1051 0380 F1197605 		.word	91625969
 1052 0384 00000000 		.word	.LANCHOR4
 1053 0388 CDCC4C3D 		.word	1028443341
 1054 038c 00000000 		.word	.LANCHOR6
 1055 0390 00000000 		.word	.LANCHOR7
 1056 0394 00000000 		.word	.LANCHOR8
 1057 0398 0AD7233C 		.word	1008981770
 1058 039c 6F12033A 		.word	973279855
 1059 03a0 00000000 		.word	.LANCHOR9
 1060 03a4 00000000 		.word	.LANCHOR10
 1061 03a8 00000000 		.word	.LANCHOR11
 1062 03ac 00000000 		.word	.LANCHOR12
 1063 03b0 00000000 		.word	.LANCHOR13
 1064 03b4 EC51383D 		.word	1027101164
 1065 03b8 00000000 		.word	.LANCHOR14
 1066 03bc 0000B442 		.word	1119092736
 1067 03c0 00004842 		.word	1112014848
 1068 03c4 00000000 		.word	.LANCHOR15
 1069 03c8 00000000 		.word	.LANCHOR17
 1070 03cc 00000000 		.word	.LANCHOR18
 1071 03d0 9A99993E 		.word	1050253722
 1072 03d4 9A99193F 		.word	1058642330
 1073 03d8 00000000 		.word	.LANCHOR21
 1074 03dc 1F85EB51 		.word	1374389535
 1075 03e0 00000000 		.word	.LANCHOR22
 1076 03e4 00000000 		.word	.LANCHOR23
 1077 03e8 00000000 		.word	.LANCHOR19
ARM GAS  C:\Users\louis\AppData\Local\Temp\ccBNZUOb.s 			page 40


 1078 03ec 00000000 		.word	.LANCHOR20
 1079 03f0 00000000 		.word	.LANCHOR24
 1080              	.LVL73:
 1081              	.L40:
 1082              		.loc 6 64 43 view .LVU291
 1083              	.LBE347:
 1084              	.LBE346:
 186:test-daisy-seed.cpp ****             current_chord = rand() % chord_count;
 1085              		.loc 12 186 13 is_stmt 1 view .LVU292
 186:test-daisy-seed.cpp ****             current_chord = rand() % chord_count;
 1086              		.loc 12 186 27 is_stmt 0 view .LVU293
 1087 03f4 0023     		movs	r3, #0
 189:test-daisy-seed.cpp ****             chord_osc2.SetFreq(chords[current_chord].notes[1] * 1.005f);
 1088              		.loc 12 189 31 view .LVU294
 1089 03f6 DFF8B4B0 		ldr	fp, .L45+28
 186:test-daisy-seed.cpp ****             current_chord = rand() % chord_count;
 1090              		.loc 12 186 27 view .LVU295
 1091 03fa C8F80030 		str	r3, [r8]
 187:test-daisy-seed.cpp **** 
 1092              		.loc 12 187 13 is_stmt 1 view .LVU296
 187:test-daisy-seed.cpp **** 
 1093              		.loc 12 187 33 is_stmt 0 view .LVU297
 1094 03fe FFF7FEFF 		bl	rand
 1095              	.LVL74:
 189:test-daisy-seed.cpp ****             chord_osc2.SetFreq(chords[current_chord].notes[1] * 1.005f);
 1096              		.loc 12 189 13 is_stmt 1 view .LVU298
 187:test-daisy-seed.cpp **** 
 1097              		.loc 12 187 36 is_stmt 0 view .LVU299
 1098 0402 234B     		ldr	r3, .L45
 1099 0404 83FB0023 		smull	r2, r3, r3, r0
 187:test-daisy-seed.cpp **** 
 1100              		.loc 12 187 27 view .LVU300
 1101 0408 224A     		ldr	r2, .L45+4
 187:test-daisy-seed.cpp **** 
 1102              		.loc 12 187 36 view .LVU301
 1103 040a A3EBE073 		sub	r3, r3, r0, asr #31
 1104 040e 03EB4303 		add	r3, r3, r3, lsl #1
 1105 0412 C31A     		subs	r3, r0, r3
 1106              	.LBB348:
 1107              	.LBB349:
  69:../../DaisySP//Source/Synthesis/oscillator.h ****         phase_inc_ = CalcPhaseInc(f);
 1108              		.loc 7 69 20 view .LVU302
 1109 0414 2048     		ldr	r0, .L45+8
 1110              	.LBE349:
 1111              	.LBE348:
 187:test-daisy-seed.cpp **** 
 1112              		.loc 12 187 27 view .LVU303
 1113 0416 1360     		str	r3, [r2]
 189:test-daisy-seed.cpp ****             chord_osc2.SetFreq(chords[current_chord].notes[1] * 1.005f);
 1114              		.loc 12 189 31 view .LVU304
 1115 0418 0BEB0313 		add	r3, fp, r3, lsl #4
 1116 041c 93ED000A 		vldr.32	s0, [r3]
 1117              	.LVL75:
 1118              	.LBB353:
 1119              	.LBI348:
  67:../../DaisySP//Source/Synthesis/oscillator.h ****     {
 1120              		.loc 7 67 17 is_stmt 1 view .LVU305
ARM GAS  C:\Users\louis\AppData\Local\Temp\ccBNZUOb.s 			page 41


 1121              	.LBB350:
  69:../../DaisySP//Source/Synthesis/oscillator.h ****         phase_inc_ = CalcPhaseInc(f);
 1122              		.loc 7 69 9 view .LVU306
  69:../../DaisySP//Source/Synthesis/oscillator.h ****         phase_inc_ = CalcPhaseInc(f);
 1123              		.loc 7 69 20 is_stmt 0 view .LVU307
 1124 0420 80ED020A 		vstr.32	s0, [r0, #8]
 1125              		.loc 7 70 9 is_stmt 1 view .LVU308
 1126              		.loc 7 70 34 is_stmt 0 view .LVU309
 1127 0424 FFF7FEFF 		bl	_ZN7daisysp10Oscillator12CalcPhaseIncEf
 1128              	.LVL76:
 1129              		.loc 7 70 34 view .LVU310
 1130              	.LBE350:
 1131              	.LBE353:
 190:test-daisy-seed.cpp ****             chord_osc3.SetFreq(chords[current_chord].notes[2] * 0.995f);
 1132              		.loc 12 190 61 view .LVU311
 1133 0428 1A4A     		ldr	r2, .L45+4
 1134              	.LBB354:
 1135              	.LBB351:
 1136              		.loc 7 70 20 view .LVU312
 1137 042a 1B48     		ldr	r0, .L45+8
 1138              	.LBE351:
 1139              	.LBE354:
 190:test-daisy-seed.cpp ****             chord_osc3.SetFreq(chords[current_chord].notes[2] * 0.995f);
 1140              		.loc 12 190 61 view .LVU313
 1141 042c 1368     		ldr	r3, [r2]
 190:test-daisy-seed.cpp ****             chord_osc3.SetFreq(chords[current_chord].notes[2] * 0.995f);
 1142              		.loc 12 190 31 view .LVU314
 1143 042e DFED1B7A 		vldr.32	s15, .L45+12
 190:test-daisy-seed.cpp ****             chord_osc3.SetFreq(chords[current_chord].notes[2] * 0.995f);
 1144              		.loc 12 190 61 view .LVU315
 1145 0432 0BEB0313 		add	r3, fp, r3, lsl #4
 1146              	.LBB355:
 1147              	.LBB352:
 1148              		.loc 7 70 20 view .LVU316
 1149 0436 80ED070A 		vstr.32	s0, [r0, #28]
 1150              	.LVL77:
 1151              		.loc 7 70 20 view .LVU317
 1152              	.LBE352:
 1153              	.LBE355:
 190:test-daisy-seed.cpp ****             chord_osc3.SetFreq(chords[current_chord].notes[2] * 0.995f);
 1154              		.loc 12 190 13 is_stmt 1 view .LVU318
 1155              	.LBB356:
 1156              	.LBB357:
  69:../../DaisySP//Source/Synthesis/oscillator.h ****         phase_inc_ = CalcPhaseInc(f);
 1157              		.loc 7 69 20 is_stmt 0 view .LVU319
 1158 043a 1948     		ldr	r0, .L45+16
 1159              	.LBE357:
 1160              	.LBE356:
 190:test-daisy-seed.cpp ****             chord_osc3.SetFreq(chords[current_chord].notes[2] * 0.995f);
 1161              		.loc 12 190 31 view .LVU320
 1162 043c 93ED010A 		vldr.32	s0, [r3, #4]
 1163 0440 20EE270A 		vmul.f32	s0, s0, s15
 1164              	.LVL78:
 1165              	.LBB361:
 1166              	.LBI356:
  67:../../DaisySP//Source/Synthesis/oscillator.h ****     {
 1167              		.loc 7 67 17 is_stmt 1 view .LVU321
ARM GAS  C:\Users\louis\AppData\Local\Temp\ccBNZUOb.s 			page 42


 1168              	.LBB358:
  69:../../DaisySP//Source/Synthesis/oscillator.h ****         phase_inc_ = CalcPhaseInc(f);
 1169              		.loc 7 69 9 view .LVU322
  69:../../DaisySP//Source/Synthesis/oscillator.h ****         phase_inc_ = CalcPhaseInc(f);
 1170              		.loc 7 69 20 is_stmt 0 view .LVU323
 1171 0444 80ED020A 		vstr.32	s0, [r0, #8]
 1172              		.loc 7 70 9 is_stmt 1 view .LVU324
 1173              		.loc 7 70 34 is_stmt 0 view .LVU325
 1174 0448 FFF7FEFF 		bl	_ZN7daisysp10Oscillator12CalcPhaseIncEf
 1175              	.LVL79:
 1176              		.loc 7 70 34 view .LVU326
 1177              	.LBE358:
 1178              	.LBE361:
 191:test-daisy-seed.cpp **** 
 1179              		.loc 12 191 61 view .LVU327
 1180 044c 114A     		ldr	r2, .L45+4
 1181              	.LBB362:
 1182              	.LBB359:
 1183              		.loc 7 70 20 view .LVU328
 1184 044e 1448     		ldr	r0, .L45+16
 1185              	.LBE359:
 1186              	.LBE362:
 191:test-daisy-seed.cpp **** 
 1187              		.loc 12 191 61 view .LVU329
 1188 0450 1368     		ldr	r3, [r2]
 1189              	.LBB363:
 1190              	.LBB360:
 1191              		.loc 7 70 20 view .LVU330
 1192 0452 80ED070A 		vstr.32	s0, [r0, #28]
 1193              	.LVL80:
 1194              		.loc 7 70 20 view .LVU331
 1195              	.LBE360:
 1196              	.LBE363:
 191:test-daisy-seed.cpp **** 
 1197              		.loc 12 191 13 is_stmt 1 view .LVU332
 191:test-daisy-seed.cpp **** 
 1198              		.loc 12 191 61 is_stmt 0 view .LVU333
 1199 0456 0BEB031B 		add	fp, fp, r3, lsl #4
 191:test-daisy-seed.cpp **** 
 1200              		.loc 12 191 31 view .LVU334
 1201 045a DFED127A 		vldr.32	s15, .L45+20
 1202 045e 9BED020A 		vldr.32	s0, [fp, #8]
 1203              	.LBB364:
 1204              	.LBB365:
  69:../../DaisySP//Source/Synthesis/oscillator.h ****         phase_inc_ = CalcPhaseInc(f);
 1205              		.loc 7 69 20 view .LVU335
 1206 0462 DFF84CB0 		ldr	fp, .L45+32
 1207              	.LBE365:
 1208              	.LBE364:
 191:test-daisy-seed.cpp **** 
 1209              		.loc 12 191 31 view .LVU336
 1210 0466 20EE270A 		vmul.f32	s0, s0, s15
 1211              	.LVL81:
 1212              	.LBB368:
 1213              	.LBI364:
  67:../../DaisySP//Source/Synthesis/oscillator.h ****     {
 1214              		.loc 7 67 17 is_stmt 1 view .LVU337
ARM GAS  C:\Users\louis\AppData\Local\Temp\ccBNZUOb.s 			page 43


 1215              	.LBB366:
  69:../../DaisySP//Source/Synthesis/oscillator.h ****         phase_inc_ = CalcPhaseInc(f);
 1216              		.loc 7 69 9 view .LVU338
 1217              		.loc 7 70 34 is_stmt 0 view .LVU339
 1218 046a 5846     		mov	r0, fp
  69:../../DaisySP//Source/Synthesis/oscillator.h ****         phase_inc_ = CalcPhaseInc(f);
 1219              		.loc 7 69 20 view .LVU340
 1220 046c 8BED020A 		vstr.32	s0, [fp, #8]
 1221              		.loc 7 70 9 is_stmt 1 view .LVU341
 1222              		.loc 7 70 34 is_stmt 0 view .LVU342
 1223 0470 FFF7FEFF 		bl	_ZN7daisysp10Oscillator12CalcPhaseIncEf
 1224              	.LVL82:
 1225              		.loc 7 70 34 view .LVU343
 1226              	.LBE366:
 1227              	.LBE368:
 1228              	.LBB369:
 1229              	.LBB370:
 1230              		.loc 6 64 38 view .LVU344
 1231 0474 0C4B     		ldr	r3, .L45+24
 1232 0476 0122     		movs	r2, #1
 1233              	.LBE370:
 1234              	.LBE369:
 1235              	.LBB372:
 1236              	.LBB367:
 1237              		.loc 7 70 20 view .LVU345
 1238 0478 8BED070A 		vstr.32	s0, [fp, #28]
 1239              	.LVL83:
 1240              		.loc 7 70 20 view .LVU346
 1241              	.LBE367:
 1242              	.LBE372:
 193:test-daisy-seed.cpp ****         }
 1243              		.loc 12 193 13 is_stmt 1 view .LVU347
 1244              	.LBB373:
 1245              	.LBI369:
 1246              		.loc 6 64 17 view .LVU348
 1247              	.LBB371:
 1248              		.loc 6 64 29 view .LVU349
 1249              		.loc 6 64 38 is_stmt 0 view .LVU350
 1250 047c 83F83420 		strb	r2, [r3, #52]
 1251              		.loc 6 64 43 view .LVU351
 1252 0480 DFE5     		b	.L20
 1253              	.LVL84:
 1254              	.L42:
 1255              		.loc 6 64 43 view .LVU352
 1256              	.LBE371:
 1257              	.LBE373:
 1258              	.LBE374:
 1259              	.LBE375:
 208:test-daisy-seed.cpp ****         }
 209:test-daisy-seed.cpp ****     }
 210:test-daisy-seed.cpp **** }
 1260              		.loc 12 210 1 view .LVU353
 1261 0482 05B0     		add	sp, sp, #20
 1262              		.cfi_def_cfa_offset 68
 1263              		@ sp needed
 1264 0484 BDEC088B 		vldm	sp!, {d8-d11}
 1265              		.cfi_restore 86
ARM GAS  C:\Users\louis\AppData\Local\Temp\ccBNZUOb.s 			page 44


 1266              		.cfi_restore 87
 1267              		.cfi_restore 84
 1268              		.cfi_restore 85
 1269              		.cfi_restore 82
 1270              		.cfi_restore 83
 1271              		.cfi_restore 80
 1272              		.cfi_restore 81
 1273              		.cfi_def_cfa_offset 36
 1274              	.LVL85:
 1275              		.loc 12 210 1 view .LVU354
 1276 0488 BDE8F08F 		pop	{r4, r5, r6, r7, r8, r9, r10, fp, pc}
 1277              	.LVL86:
 1278              	.L37:
 1279              		.cfi_def_cfa_offset 0
 1280              		.cfi_restore 4
 1281              		.cfi_restore 5
 1282              		.cfi_restore 6
 1283              		.cfi_restore 7
 1284              		.cfi_restore 8
 1285              		.cfi_restore 9
 1286              		.cfi_restore 10
 1287              		.cfi_restore 11
 1288              		.cfi_restore 14
 1289              		.loc 12 210 1 view .LVU355
 1290 048c 7047     		bx	lr
 1291              	.L46:
 1292 048e 00BF     		.align	2
 1293              	.L45:
 1294 0490 56555555 		.word	1431655766
 1295 0494 00000000 		.word	.LANCHOR22
 1296 0498 00000000 		.word	.LANCHOR8
 1297 049c D7A3803F 		.word	1065395159
 1298 04a0 00000000 		.word	.LANCHOR9
 1299 04a4 52B87E3F 		.word	1065269330
 1300 04a8 00000000 		.word	.LANCHOR11
 1301 04ac 00000000 		.word	.LANCHOR23
 1302 04b0 00000000 		.word	.LANCHOR10
 1303              		.cfi_endproc
 1304              	.LFE4681:
 1306              		.section	.text._ZN7daisysp10Oscillator4InitEf,"axG",%progbits,_ZN7daisysp10Oscillator4InitEf,comda
 1307              		.align	1
 1308              		.p2align 2,,3
 1309              		.weak	_ZN7daisysp10Oscillator4InitEf
 1310              		.syntax unified
 1311              		.thumb
 1312              		.thumb_func
 1313              		.fpu fpv5-d16
 1315              	_ZN7daisysp10Oscillator4InitEf:
 1316              	.LVL87:
 1317              	.LFB4242:
  50:../../DaisySP//Source/Synthesis/oscillator.h ****     {
 1318              		.loc 7 50 10 is_stmt 1 view -0
 1319              		.cfi_startproc
 1320              		@ args = 0, pretend = 0, frame = 0
 1321              		@ frame_needed = 0, uses_anonymous_args = 0
  52:../../DaisySP//Source/Synthesis/oscillator.h ****         sr_recip_  = 1.0f / sample_rate;
 1322              		.loc 7 52 9 view .LVU357
ARM GAS  C:\Users\louis\AppData\Local\Temp\ccBNZUOb.s 			page 45


  50:../../DaisySP//Source/Synthesis/oscillator.h ****     {
 1323              		.loc 7 50 10 is_stmt 0 view .LVU358
 1324 0000 F0EE407A 		vmov.f32	s15, s0
  55:../../DaisySP//Source/Synthesis/oscillator.h ****         pw_        = 0.5f;
 1325              		.loc 7 55 20 view .LVU359
 1326 0004 4FF07C53 		mov	r3, #1056964608
  53:../../DaisySP//Source/Synthesis/oscillator.h ****         freq_      = 100.0f;
 1327              		.loc 7 53 27 view .LVU360
 1328 0008 F7EE006A 		vmov.f32	s13, #1.0e+0
  57:../../DaisySP//Source/Synthesis/oscillator.h ****         phase_inc_ = CalcPhaseInc(freq_);
 1329              		.loc 7 57 20 view .LVU361
 1330 000c 0022     		movs	r2, #0
  54:../../DaisySP//Source/Synthesis/oscillator.h ****         amp_       = 0.5f;
 1331              		.loc 7 54 20 view .LVU362
 1332 000e 9FED0C0A 		vldr.32	s0, .L49
 1333              	.LVL88:
  55:../../DaisySP//Source/Synthesis/oscillator.h ****         pw_        = 0.5f;
 1334              		.loc 7 55 20 view .LVU363
 1335 0012 4360     		str	r3, [r0, #4]	@ float
  53:../../DaisySP//Source/Synthesis/oscillator.h ****         freq_      = 100.0f;
 1336              		.loc 7 53 27 view .LVU364
 1337 0014 86EEA77A 		vdiv.f32	s14, s13, s15
  56:../../DaisySP//Source/Synthesis/oscillator.h ****         phase_     = 0.0f;
 1338              		.loc 7 56 20 view .LVU365
 1339 0018 C360     		str	r3, [r0, #12]	@ float
  57:../../DaisySP//Source/Synthesis/oscillator.h ****         phase_inc_ = CalcPhaseInc(freq_);
 1340              		.loc 7 57 20 view .LVU366
 1341 001a 8261     		str	r2, [r0, #24]	@ float
  52:../../DaisySP//Source/Synthesis/oscillator.h ****         sr_recip_  = 1.0f / sample_rate;
 1342              		.loc 7 52 20 view .LVU367
 1343 001c C0ED047A 		vstr.32	s15, [r0, #16]
  53:../../DaisySP//Source/Synthesis/oscillator.h ****         freq_      = 100.0f;
 1344              		.loc 7 53 9 is_stmt 1 view .LVU368
  54:../../DaisySP//Source/Synthesis/oscillator.h ****         amp_       = 0.5f;
 1345              		.loc 7 54 20 is_stmt 0 view .LVU369
 1346 0020 80ED020A 		vstr.32	s0, [r0, #8]
  50:../../DaisySP//Source/Synthesis/oscillator.h ****     {
 1347              		.loc 7 50 10 view .LVU370
 1348 0024 10B5     		push	{r4, lr}
 1349              		.cfi_def_cfa_offset 8
 1350              		.cfi_offset 4, -8
 1351              		.cfi_offset 14, -4
  50:../../DaisySP//Source/Synthesis/oscillator.h ****     {
 1352              		.loc 7 50 10 view .LVU371
 1353 0026 0446     		mov	r4, r0
  53:../../DaisySP//Source/Synthesis/oscillator.h ****         freq_      = 100.0f;
 1354              		.loc 7 53 20 view .LVU372
 1355 0028 80ED057A 		vstr.32	s14, [r0, #20]
  54:../../DaisySP//Source/Synthesis/oscillator.h ****         amp_       = 0.5f;
 1356              		.loc 7 54 9 is_stmt 1 view .LVU373
  55:../../DaisySP//Source/Synthesis/oscillator.h ****         pw_        = 0.5f;
 1357              		.loc 7 55 9 view .LVU374
  56:../../DaisySP//Source/Synthesis/oscillator.h ****         phase_     = 0.0f;
 1358              		.loc 7 56 9 view .LVU375
  57:../../DaisySP//Source/Synthesis/oscillator.h ****         phase_inc_ = CalcPhaseInc(freq_);
 1359              		.loc 7 57 9 view .LVU376
  58:../../DaisySP//Source/Synthesis/oscillator.h ****         waveform_  = WAVE_SIN;
ARM GAS  C:\Users\louis\AppData\Local\Temp\ccBNZUOb.s 			page 46


 1360              		.loc 7 58 9 view .LVU377
  58:../../DaisySP//Source/Synthesis/oscillator.h ****         waveform_  = WAVE_SIN;
 1361              		.loc 7 58 34 is_stmt 0 view .LVU378
 1362 002c FFF7FEFF 		bl	_ZN7daisysp10Oscillator12CalcPhaseIncEf
 1363              	.LVL89:
  59:../../DaisySP//Source/Synthesis/oscillator.h ****         eoc_       = true;
 1364              		.loc 7 59 20 view .LVU379
 1365 0030 0022     		movs	r2, #0
  61:../../DaisySP//Source/Synthesis/oscillator.h ****     }
 1366              		.loc 7 61 20 view .LVU380
 1367 0032 40F20113 		movw	r3, #257
  58:../../DaisySP//Source/Synthesis/oscillator.h ****         waveform_  = WAVE_SIN;
 1368              		.loc 7 58 20 view .LVU381
 1369 0036 84ED070A 		vstr.32	s0, [r4, #28]
  59:../../DaisySP//Source/Synthesis/oscillator.h ****         eoc_       = true;
 1370              		.loc 7 59 9 is_stmt 1 view .LVU382
  59:../../DaisySP//Source/Synthesis/oscillator.h ****         eoc_       = true;
 1371              		.loc 7 59 20 is_stmt 0 view .LVU383
 1372 003a 2270     		strb	r2, [r4]
  60:../../DaisySP//Source/Synthesis/oscillator.h ****         eor_       = true;
 1373              		.loc 7 60 9 is_stmt 1 view .LVU384
  61:../../DaisySP//Source/Synthesis/oscillator.h ****     }
 1374              		.loc 7 61 9 view .LVU385
  61:../../DaisySP//Source/Synthesis/oscillator.h ****     }
 1375              		.loc 7 61 20 is_stmt 0 view .LVU386
 1376 003c 2385     		strh	r3, [r4, #40]	@ movhi
  62:../../DaisySP//Source/Synthesis/oscillator.h **** 
 1377              		.loc 7 62 5 view .LVU387
 1378 003e 10BD     		pop	{r4, pc}
 1379              	.LVL90:
 1380              	.L50:
  62:../../DaisySP//Source/Synthesis/oscillator.h **** 
 1381              		.loc 7 62 5 view .LVU388
 1382              		.align	2
 1383              	.L49:
 1384 0040 0000C842 		.word	1120403456
 1385              		.cfi_endproc
 1386              	.LFE4242:
 1388              		.section	.text.startup.main,"ax",%progbits
 1389              		.align	1
 1390              		.p2align 2,,3
 1391              		.global	main
 1392              		.syntax unified
 1393              		.thumb
 1394              		.thumb_func
 1395              		.fpu fpv5-d16
 1397              	main:
 1398              	.LFB4682:
 211:test-daisy-seed.cpp **** 
 212:test-daisy-seed.cpp **** // ------------------------------------------------------------
 213:test-daisy-seed.cpp **** // main
 214:test-daisy-seed.cpp **** // ------------------------------------------------------------
 215:test-daisy-seed.cpp **** int main(void)
 216:test-daisy-seed.cpp **** {
 1399              		.loc 12 216 1 is_stmt 1 view -0
 1400              		.cfi_startproc
 1401              		@ args = 0, pretend = 0, frame = 0
ARM GAS  C:\Users\louis\AppData\Local\Temp\ccBNZUOb.s 			page 47


 1402              		@ frame_needed = 0, uses_anonymous_args = 0
 217:test-daisy-seed.cpp ****     hw.Configure();
 1403              		.loc 12 217 5 view .LVU390
 216:test-daisy-seed.cpp ****     hw.Configure();
 1404              		.loc 12 216 1 is_stmt 0 view .LVU391
 1405 0000 F8B5     		push	{r3, r4, r5, r6, r7, lr}
 1406              		.cfi_def_cfa_offset 24
 1407              		.cfi_offset 3, -24
 1408              		.cfi_offset 4, -20
 1409              		.cfi_offset 5, -16
 1410              		.cfi_offset 6, -12
 1411              		.cfi_offset 7, -8
 1412              		.cfi_offset 14, -4
 1413              		.loc 12 217 17 view .LVU392
 1414 0002 7E48     		ldr	r0, .L55
 1415              	.LBB424:
 1416              	.LBB425:
  71:../../DaisySP//Source/Synthesis/oscillator.h ****     }
  72:../../DaisySP//Source/Synthesis/oscillator.h **** 
  73:../../DaisySP//Source/Synthesis/oscillator.h **** 
  74:../../DaisySP//Source/Synthesis/oscillator.h ****     /** Sets the amplitude of the waveform.
  75:../../DaisySP//Source/Synthesis/oscillator.h ****     */
  76:../../DaisySP//Source/Synthesis/oscillator.h ****     inline void SetAmp(const float a) { amp_ = a; }
  77:../../DaisySP//Source/Synthesis/oscillator.h ****     /** Sets the waveform to be synthesized by the Process() function.
  78:../../DaisySP//Source/Synthesis/oscillator.h ****     */
  79:../../DaisySP//Source/Synthesis/oscillator.h ****     inline void SetWaveform(const uint8_t wf)
  80:../../DaisySP//Source/Synthesis/oscillator.h ****     {
  81:../../DaisySP//Source/Synthesis/oscillator.h ****         waveform_ = wf < WAVE_LAST ? wf : WAVE_SIN;
 1417              		.loc 7 81 19 view .LVU393
 1418 0004 0224     		movs	r4, #2
 1419              	.LBE425:
 1420              	.LBE424:
 218:test-daisy-seed.cpp ****     hw.Init();
 219:test-daisy-seed.cpp **** 
 220:test-daisy-seed.cpp ****     float sr = hw.AudioSampleRate();
 221:test-daisy-seed.cpp ****     samples_per_note  = sr * 0.25f;
 222:test-daisy-seed.cpp ****     samples_per_chord = sr * 4.0f;
 223:test-daisy-seed.cpp ****     samples_per_step  = sr * 0.5f; // ~120 bpm
 224:test-daisy-seed.cpp **** 
 225:test-daisy-seed.cpp ****     // ================== init mlodie ==================
 226:test-daisy-seed.cpp ****     osc.Init(sr);
 1421              		.loc 12 226 13 view .LVU394
 1422 0006 7E4E     		ldr	r6, .L55+4
 227:test-daisy-seed.cpp ****     osc.SetWaveform(Oscillator::WAVE_SAW);
 228:test-daisy-seed.cpp **** 
 229:test-daisy-seed.cpp ****     env.Init(sr);
 1423              		.loc 12 229 13 view .LVU395
 1424 0008 7E4D     		ldr	r5, .L55+8
 230:test-daisy-seed.cpp ****     env.SetTime(ADENV_SEG_ATTACK, 0.5f);
 231:test-daisy-seed.cpp ****     env.SetTime(ADENV_SEG_DECAY, 3.0f);
 232:test-daisy-seed.cpp **** 
 233:test-daisy-seed.cpp ****     // ================== init accords ==================
 234:test-daisy-seed.cpp ****     chord_osc1.Init(sr); chord_osc1.SetWaveform(Oscillator::WAVE_SAW);
 235:test-daisy-seed.cpp ****     chord_osc2.Init(sr); chord_osc2.SetWaveform(Oscillator::WAVE_SAW);
 1425              		.loc 12 235 20 view .LVU396
 1426 000a 7F4F     		ldr	r7, .L55+12
 216:test-daisy-seed.cpp ****     hw.Configure();
ARM GAS  C:\Users\louis\AppData\Local\Temp\ccBNZUOb.s 			page 48


 1427              		.loc 12 216 1 view .LVU397
 1428 000c 2DED048B 		vpush.64	{d8, d9}
 1429              		.cfi_def_cfa_offset 40
 1430              		.cfi_offset 80, -40
 1431              		.cfi_offset 81, -36
 1432              		.cfi_offset 82, -32
 1433              		.cfi_offset 83, -28
 217:test-daisy-seed.cpp ****     hw.Init();
 1434              		.loc 12 217 17 view .LVU398
 1435 0010 FFF7FEFF 		bl	_ZN5daisy9DaisySeed9ConfigureEv
 1436              	.LVL91:
 218:test-daisy-seed.cpp **** 
 1437              		.loc 12 218 5 is_stmt 1 view .LVU399
 221:test-daisy-seed.cpp ****     samples_per_chord = sr * 4.0f;
 1438              		.loc 12 221 28 is_stmt 0 view .LVU400
 1439 0014 F5EE008A 		vmov.f32	s17, #2.5e-1
 218:test-daisy-seed.cpp **** 
 1440              		.loc 12 218 12 view .LVU401
 1441 0018 0021     		movs	r1, #0
 1442 001a 7848     		ldr	r0, .L55
 1443 001c FFF7FEFF 		bl	_ZN5daisy9DaisySeed4InitEb
 1444              	.LVL92:
 220:test-daisy-seed.cpp ****     samples_per_note  = sr * 0.25f;
 1445              		.loc 12 220 5 is_stmt 1 view .LVU402
 220:test-daisy-seed.cpp ****     samples_per_note  = sr * 0.25f;
 1446              		.loc 12 220 34 is_stmt 0 view .LVU403
 1447 0020 7648     		ldr	r0, .L55
 1448 0022 FFF7FEFF 		bl	_ZN5daisy9DaisySeed15AudioSampleRateEv
 1449              	.LVL93:
 222:test-daisy-seed.cpp ****     samples_per_step  = sr * 0.5f; // ~120 bpm
 1450              		.loc 12 222 28 view .LVU404
 1451 0026 F1EE007A 		vmov.f32	s15, #4.0e+0
 221:test-daisy-seed.cpp ****     samples_per_chord = sr * 4.0f;
 1452              		.loc 12 221 28 view .LVU405
 1453 002a 60EE286A 		vmul.f32	s13, s0, s17
 221:test-daisy-seed.cpp ****     samples_per_chord = sr * 4.0f;
 1454              		.loc 12 221 23 view .LVU406
 1455 002e 774B     		ldr	r3, .L55+16
 223:test-daisy-seed.cpp **** 
 1456              		.loc 12 223 28 view .LVU407
 1457 0030 B6EE009A 		vmov.f32	s18, #5.0e-1
 226:test-daisy-seed.cpp ****     osc.SetWaveform(Oscillator::WAVE_SAW);
 1458              		.loc 12 226 13 view .LVU408
 1459 0034 3046     		mov	r0, r6
 222:test-daisy-seed.cpp ****     samples_per_step  = sr * 0.5f; // ~120 bpm
 1460              		.loc 12 222 28 view .LVU409
 1461 0036 60EE277A 		vmul.f32	s15, s0, s15
 221:test-daisy-seed.cpp ****     samples_per_chord = sr * 4.0f;
 1462              		.loc 12 221 23 view .LVU410
 1463 003a FCEEE66A 		vcvt.u32.f32	s13, s13
 223:test-daisy-seed.cpp **** 
 1464              		.loc 12 223 28 view .LVU411
 1465 003e 20EE097A 		vmul.f32	s14, s0, s18
 222:test-daisy-seed.cpp ****     samples_per_step  = sr * 0.5f; // ~120 bpm
 1466              		.loc 12 222 23 view .LVU412
 1467 0042 FCEEE77A 		vcvt.u32.f32	s15, s15
 221:test-daisy-seed.cpp ****     samples_per_chord = sr * 4.0f;
ARM GAS  C:\Users\louis\AppData\Local\Temp\ccBNZUOb.s 			page 49


 1468              		.loc 12 221 23 view .LVU413
 1469 0046 C3ED006A 		vstr.32	s13, [r3]	@ int
 220:test-daisy-seed.cpp ****     samples_per_note  = sr * 0.25f;
 1470              		.loc 12 220 34 view .LVU414
 1471 004a B0EE408A 		vmov.f32	s16, s0
 1472              	.LVL94:
 221:test-daisy-seed.cpp ****     samples_per_chord = sr * 4.0f;
 1473              		.loc 12 221 5 is_stmt 1 view .LVU415
 222:test-daisy-seed.cpp ****     samples_per_step  = sr * 0.5f; // ~120 bpm
 1474              		.loc 12 222 5 view .LVU416
 222:test-daisy-seed.cpp ****     samples_per_step  = sr * 0.5f; // ~120 bpm
 1475              		.loc 12 222 23 is_stmt 0 view .LVU417
 1476 004e 704B     		ldr	r3, .L55+20
 223:test-daisy-seed.cpp **** 
 1477              		.loc 12 223 23 view .LVU418
 1478 0050 BCEEC77A 		vcvt.u32.f32	s14, s14
 222:test-daisy-seed.cpp ****     samples_per_step  = sr * 0.5f; // ~120 bpm
 1479              		.loc 12 222 23 view .LVU419
 1480 0054 C3ED007A 		vstr.32	s15, [r3]	@ int
 223:test-daisy-seed.cpp **** 
 1481              		.loc 12 223 5 is_stmt 1 view .LVU420
 223:test-daisy-seed.cpp **** 
 1482              		.loc 12 223 23 is_stmt 0 view .LVU421
 1483 0058 6E4B     		ldr	r3, .L55+24
 1484 005a 83ED007A 		vstr.32	s14, [r3]	@ int
 226:test-daisy-seed.cpp ****     osc.SetWaveform(Oscillator::WAVE_SAW);
 1485              		.loc 12 226 5 is_stmt 1 view .LVU422
 226:test-daisy-seed.cpp ****     osc.SetWaveform(Oscillator::WAVE_SAW);
 1486              		.loc 12 226 13 is_stmt 0 view .LVU423
 1487 005e FFF7FEFF 		bl	_ZN7daisysp10Oscillator4InitEf
 1488              	.LVL95:
 227:test-daisy-seed.cpp **** 
 1489              		.loc 12 227 5 is_stmt 1 view .LVU424
 1490              	.LBB428:
 1491              	.LBI424:
  79:../../DaisySP//Source/Synthesis/oscillator.h ****     {
 1492              		.loc 7 79 17 view .LVU425
 1493              	.LBB426:
 1494              		.loc 7 81 9 view .LVU426
 1495              	.LBE426:
 1496              	.LBE428:
 229:test-daisy-seed.cpp ****     env.SetTime(ADENV_SEG_ATTACK, 0.5f);
 1497              		.loc 12 229 13 is_stmt 0 view .LVU427
 1498 0062 2846     		mov	r0, r5
 1499 0064 B0EE480A 		vmov.f32	s0, s16
 1500              	.LBB429:
 1501              	.LBB427:
 1502              		.loc 7 81 19 view .LVU428
 1503 0068 3470     		strb	r4, [r6]
 1504              	.LVL96:
 1505              		.loc 7 81 19 view .LVU429
 1506              	.LBE427:
 1507              	.LBE429:
 229:test-daisy-seed.cpp ****     env.SetTime(ADENV_SEG_ATTACK, 0.5f);
 1508              		.loc 12 229 5 is_stmt 1 view .LVU430
 229:test-daisy-seed.cpp ****     env.SetTime(ADENV_SEG_ATTACK, 0.5f);
 1509              		.loc 12 229 13 is_stmt 0 view .LVU431
ARM GAS  C:\Users\louis\AppData\Local\Temp\ccBNZUOb.s 			page 50


 1510 006a FFF7FEFF 		bl	_ZN7daisysp5AdEnv4InitEf
 1511              	.LVL97:
 230:test-daisy-seed.cpp ****     env.SetTime(ADENV_SEG_DECAY, 3.0f);
 1512              		.loc 12 230 5 is_stmt 1 view .LVU432
 1513              	.LBB430:
 1514              	.LBI430:
  65:../../DaisySP//Source/Control/adenv.h ****     /** Sets the length of time (in seconds) for a specific segment. */
  66:../../DaisySP//Source/Control/adenv.h ****     inline void SetTime(uint8_t seg, float time) { segment_time_[seg] = time; }
 1515              		.loc 6 66 17 view .LVU433
 1516              	.LBB431:
 1517              		.loc 6 66 52 view .LVU434
 1518              	.LBE431:
 1519              	.LBE430:
 234:test-daisy-seed.cpp ****     chord_osc2.Init(sr); chord_osc2.SetWaveform(Oscillator::WAVE_SAW);
 1520              		.loc 12 234 20 is_stmt 0 view .LVU435
 1521 006e 6A4E     		ldr	r6, .L55+28
 1522 0070 B0EE480A 		vmov.f32	s0, s16
 1523              	.LBB433:
 1524              	.LBB434:
 1525              		.loc 6 66 71 view .LVU436
 1526 0074 694B     		ldr	r3, .L55+32
 1527              	.LBE434:
 1528              	.LBE433:
 234:test-daisy-seed.cpp ****     chord_osc2.Init(sr); chord_osc2.SetWaveform(Oscillator::WAVE_SAW);
 1529              		.loc 12 234 20 view .LVU437
 1530 0076 3046     		mov	r0, r6
 1531              	.LBB436:
 1532              	.LBB432:
 1533              		.loc 6 66 71 view .LVU438
 1534 0078 85ED029A 		vstr.32	s18, [r5, #8]
 1535              	.LVL98:
 1536              		.loc 6 66 71 view .LVU439
 1537              	.LBE432:
 1538              	.LBE436:
 231:test-daisy-seed.cpp **** 
 1539              		.loc 12 231 5 is_stmt 1 view .LVU440
 1540              	.LBB437:
 1541              	.LBI433:
 1542              		.loc 6 66 17 view .LVU441
 1543              	.LBB435:
 1544              		.loc 6 66 52 view .LVU442
 1545              		.loc 6 66 71 is_stmt 0 view .LVU443
 1546 007c EB60     		str	r3, [r5, #12]	@ float
 1547              	.LVL99:
 1548              		.loc 6 66 71 view .LVU444
 1549              	.LBE435:
 1550              	.LBE437:
 234:test-daisy-seed.cpp ****     chord_osc2.Init(sr); chord_osc2.SetWaveform(Oscillator::WAVE_SAW);
 1551              		.loc 12 234 5 is_stmt 1 view .LVU445
 236:test-daisy-seed.cpp ****     chord_osc3.Init(sr); chord_osc3.SetWaveform(Oscillator::WAVE_SAW);
 1552              		.loc 12 236 20 is_stmt 0 view .LVU446
 1553 007e 684D     		ldr	r5, .L55+36
 234:test-daisy-seed.cpp ****     chord_osc2.Init(sr); chord_osc2.SetWaveform(Oscillator::WAVE_SAW);
 1554              		.loc 12 234 20 view .LVU447
 1555 0080 FFF7FEFF 		bl	_ZN7daisysp10Oscillator4InitEf
 1556              	.LVL100:
 234:test-daisy-seed.cpp ****     chord_osc2.Init(sr); chord_osc2.SetWaveform(Oscillator::WAVE_SAW);
ARM GAS  C:\Users\louis\AppData\Local\Temp\ccBNZUOb.s 			page 51


 1557              		.loc 12 234 26 is_stmt 1 view .LVU448
 1558              	.LBB438:
 1559              	.LBI438:
  79:../../DaisySP//Source/Synthesis/oscillator.h ****     {
 1560              		.loc 7 79 17 view .LVU449
 1561              	.LBB439:
 1562              		.loc 7 81 9 view .LVU450
 1563              	.LBE439:
 1564              	.LBE438:
 235:test-daisy-seed.cpp ****     chord_osc3.Init(sr); chord_osc3.SetWaveform(Oscillator::WAVE_SAW);
 1565              		.loc 12 235 20 is_stmt 0 view .LVU451
 1566 0084 3846     		mov	r0, r7
 1567              	.LBB441:
 1568              	.LBB440:
 1569              		.loc 7 81 19 view .LVU452
 1570 0086 3470     		strb	r4, [r6]
 1571              	.LVL101:
 1572              		.loc 7 81 19 view .LVU453
 1573              	.LBE440:
 1574              	.LBE441:
 235:test-daisy-seed.cpp ****     chord_osc3.Init(sr); chord_osc3.SetWaveform(Oscillator::WAVE_SAW);
 1575              		.loc 12 235 5 is_stmt 1 view .LVU454
 235:test-daisy-seed.cpp ****     chord_osc3.Init(sr); chord_osc3.SetWaveform(Oscillator::WAVE_SAW);
 1576              		.loc 12 235 20 is_stmt 0 view .LVU455
 1577 0088 B0EE480A 		vmov.f32	s0, s16
 237:test-daisy-seed.cpp **** 
 238:test-daisy-seed.cpp ****     chord_env.Init(sr);
 1578              		.loc 12 238 19 view .LVU456
 1579 008c 654E     		ldr	r6, .L55+40
 235:test-daisy-seed.cpp ****     chord_osc3.Init(sr); chord_osc3.SetWaveform(Oscillator::WAVE_SAW);
 1580              		.loc 12 235 20 view .LVU457
 1581 008e FFF7FEFF 		bl	_ZN7daisysp10Oscillator4InitEf
 1582              	.LVL102:
 235:test-daisy-seed.cpp ****     chord_osc3.Init(sr); chord_osc3.SetWaveform(Oscillator::WAVE_SAW);
 1583              		.loc 12 235 26 is_stmt 1 view .LVU458
 1584              	.LBB442:
 1585              	.LBI442:
  79:../../DaisySP//Source/Synthesis/oscillator.h ****     {
 1586              		.loc 7 79 17 view .LVU459
 1587              	.LBB443:
 1588              		.loc 7 81 9 view .LVU460
 1589              	.LBE443:
 1590              	.LBE442:
 236:test-daisy-seed.cpp **** 
 1591              		.loc 12 236 20 is_stmt 0 view .LVU461
 1592 0092 2846     		mov	r0, r5
 1593 0094 B0EE480A 		vmov.f32	s0, s16
 1594              	.LBB445:
 1595              	.LBB444:
 1596              		.loc 7 81 19 view .LVU462
 1597 0098 3C70     		strb	r4, [r7]
 1598              	.LVL103:
 1599              		.loc 7 81 19 view .LVU463
 1600              	.LBE444:
 1601              	.LBE445:
 236:test-daisy-seed.cpp **** 
 1602              		.loc 12 236 5 is_stmt 1 view .LVU464
ARM GAS  C:\Users\louis\AppData\Local\Temp\ccBNZUOb.s 			page 52


 236:test-daisy-seed.cpp **** 
 1603              		.loc 12 236 20 is_stmt 0 view .LVU465
 1604 009a FFF7FEFF 		bl	_ZN7daisysp10Oscillator4InitEf
 1605              	.LVL104:
 236:test-daisy-seed.cpp **** 
 1606              		.loc 12 236 26 is_stmt 1 view .LVU466
 1607              	.LBB446:
 1608              	.LBI446:
  79:../../DaisySP//Source/Synthesis/oscillator.h ****     {
 1609              		.loc 7 79 17 view .LVU467
 1610              	.LBB447:
 1611              		.loc 7 81 9 view .LVU468
 1612              	.LBE447:
 1613              	.LBE446:
 1614              		.loc 12 238 19 is_stmt 0 view .LVU469
 1615 009e 3046     		mov	r0, r6
 1616 00a0 B0EE480A 		vmov.f32	s0, s16
 1617              	.LBB449:
 1618              	.LBB448:
 1619              		.loc 7 81 19 view .LVU470
 1620 00a4 2C70     		strb	r4, [r5]
 1621              	.LVL105:
 1622              		.loc 7 81 19 view .LVU471
 1623              	.LBE448:
 1624              	.LBE449:
 1625              		.loc 12 238 5 is_stmt 1 view .LVU472
 239:test-daisy-seed.cpp ****     chord_env.SetTime(ADENV_SEG_ATTACK, 2.0f);
 240:test-daisy-seed.cpp ****     chord_env.SetTime(ADENV_SEG_DECAY, 6.0f);
 241:test-daisy-seed.cpp **** 
 242:test-daisy-seed.cpp ****     // ================== init drums ==================
 243:test-daisy-seed.cpp ****     kick_osc.Init(sr);
 1626              		.loc 12 243 18 is_stmt 0 view .LVU473
 1627 00a6 604F     		ldr	r7, .L55+44
 238:test-daisy-seed.cpp ****     chord_env.SetTime(ADENV_SEG_ATTACK, 2.0f);
 1628              		.loc 12 238 19 view .LVU474
 1629 00a8 FFF7FEFF 		bl	_ZN7daisysp5AdEnv4InitEf
 1630              	.LVL106:
 239:test-daisy-seed.cpp ****     chord_env.SetTime(ADENV_SEG_ATTACK, 2.0f);
 1631              		.loc 12 239 5 is_stmt 1 view .LVU475
 1632              	.LBB450:
 1633              	.LBI450:
 1634              		.loc 6 66 17 view .LVU476
 1635              	.LBB451:
 1636              		.loc 6 66 52 view .LVU477
 1637              		.loc 6 66 71 is_stmt 0 view .LVU478
 1638 00ac 4FF08042 		mov	r2, #1073741824
 1639              	.LBE451:
 1640              	.LBE450:
 1641              	.LBB453:
 1642              	.LBB454:
 1643 00b0 5E4B     		ldr	r3, .L55+48
 1644              	.LBE454:
 1645              	.LBE453:
 244:test-daisy-seed.cpp ****     kick_osc.SetWaveform(Oscillator::WAVE_SIN);
 245:test-daisy-seed.cpp **** 
 246:test-daisy-seed.cpp ****     kick_env.Init(sr);
 1646              		.loc 12 246 18 view .LVU479
ARM GAS  C:\Users\louis\AppData\Local\Temp\ccBNZUOb.s 			page 53


 1647 00b2 5F4D     		ldr	r5, .L55+52
 1648              	.LBB457:
 1649              	.LBB458:
 1650              		.loc 7 81 19 view .LVU480
 1651 00b4 0024     		movs	r4, #0
 1652              	.LBE458:
 1653              	.LBE457:
 1654              	.LBB461:
 1655              	.LBB452:
 1656              		.loc 6 66 71 view .LVU481
 1657 00b6 B260     		str	r2, [r6, #8]	@ float
 1658              	.LVL107:
 1659              		.loc 6 66 71 view .LVU482
 1660              	.LBE452:
 1661              	.LBE461:
 240:test-daisy-seed.cpp **** 
 1662              		.loc 12 240 5 is_stmt 1 view .LVU483
 1663              	.LBB462:
 1664              	.LBI453:
 1665              		.loc 6 66 17 view .LVU484
 1666              	.LBB455:
 1667              		.loc 6 66 52 view .LVU485
 1668              	.LBE455:
 1669              	.LBE462:
 243:test-daisy-seed.cpp ****     kick_osc.SetWaveform(Oscillator::WAVE_SIN);
 1670              		.loc 12 243 18 is_stmt 0 view .LVU486
 1671 00b8 B0EE480A 		vmov.f32	s0, s16
 1672              	.LBB463:
 1673              	.LBB456:
 1674              		.loc 6 66 71 view .LVU487
 1675 00bc F360     		str	r3, [r6, #12]	@ float
 1676              	.LVL108:
 1677              		.loc 6 66 71 view .LVU488
 1678              	.LBE456:
 1679              	.LBE463:
 243:test-daisy-seed.cpp ****     kick_osc.SetWaveform(Oscillator::WAVE_SIN);
 1680              		.loc 12 243 5 is_stmt 1 view .LVU489
 243:test-daisy-seed.cpp ****     kick_osc.SetWaveform(Oscillator::WAVE_SIN);
 1681              		.loc 12 243 18 is_stmt 0 view .LVU490
 1682 00be 3846     		mov	r0, r7
 1683 00c0 FFF7FEFF 		bl	_ZN7daisysp10Oscillator4InitEf
 1684              	.LVL109:
 244:test-daisy-seed.cpp ****     kick_osc.SetWaveform(Oscillator::WAVE_SIN);
 1685              		.loc 12 244 5 is_stmt 1 view .LVU491
 1686              	.LBB464:
 1687              	.LBI457:
  79:../../DaisySP//Source/Synthesis/oscillator.h ****     {
 1688              		.loc 7 79 17 view .LVU492
 1689              	.LBB459:
 1690              		.loc 7 81 9 view .LVU493
 1691              	.LBE459:
 1692              	.LBE464:
 1693              		.loc 12 246 18 is_stmt 0 view .LVU494
 1694 00c4 2846     		mov	r0, r5
 1695 00c6 B0EE480A 		vmov.f32	s0, s16
 1696              	.LBB465:
 1697              	.LBB460:
ARM GAS  C:\Users\louis\AppData\Local\Temp\ccBNZUOb.s 			page 54


 1698              		.loc 7 81 19 view .LVU495
 1699 00ca 3C70     		strb	r4, [r7]
 1700              	.LVL110:
 1701              		.loc 7 81 19 view .LVU496
 1702              	.LBE460:
 1703              	.LBE465:
 1704              		.loc 12 246 5 is_stmt 1 view .LVU497
 1705              		.loc 12 246 18 is_stmt 0 view .LVU498
 1706 00cc FFF7FEFF 		bl	_ZN7daisysp5AdEnv4InitEf
 1707              	.LVL111:
 247:test-daisy-seed.cpp ****     kick_env.SetTime(ADENV_SEG_ATTACK, 0.001f);
 1708              		.loc 12 247 5 is_stmt 1 view .LVU499
 1709              	.LBB466:
 1710              	.LBI466:
 1711              		.loc 6 66 17 view .LVU500
 1712              	.LBB467:
 1713              		.loc 6 66 52 view .LVU501
 1714              	.LBE467:
 1715              	.LBE466:
 1716              	.LBB470:
 1717              	.LBB471:
  29:../../DaisySP//Source/Noise/whitenoise.h ****         randseed_ = 1;
 1718              		.loc 10 29 19 is_stmt 0 view .LVU502
 1719 00d0 584B     		ldr	r3, .L55+56
 1720 00d2 4FF07E52 		mov	r2, #1065353216
 1721              	.LBE471:
 1722              	.LBE470:
 1723              	.LBB475:
 1724              	.LBB468:
 1725              		.loc 6 66 71 view .LVU503
 1726 00d6 584E     		ldr	r6, .L55+60
 1727              	.LBE468:
 1728              	.LBE475:
 248:test-daisy-seed.cpp ****     kick_env.SetTime(ADENV_SEG_DECAY, 0.25f);
 249:test-daisy-seed.cpp **** 
 250:test-daisy-seed.cpp ****     noise.Init();
 251:test-daisy-seed.cpp **** 
 252:test-daisy-seed.cpp ****     hihat_filter.Init(sr);
 1729              		.loc 12 252 22 view .LVU504
 1730 00d8 B0EE480A 		vmov.f32	s0, s16
 1731 00dc 5748     		ldr	r0, .L55+64
 1732              	.LBB476:
 1733              	.LBB472:
  29:../../DaisySP//Source/Noise/whitenoise.h ****         randseed_ = 1;
 1734              		.loc 10 29 19 view .LVU505
 1735 00de 1A60     		str	r2, [r3]	@ float
  30:../../DaisySP//Source/Noise/whitenoise.h ****     }
 1736              		.loc 10 30 19 view .LVU506
 1737 00e0 0122     		movs	r2, #1
 1738              	.LBE472:
 1739              	.LBE476:
 1740              	.LBB477:
 1741              	.LBB469:
 1742              		.loc 6 66 71 view .LVU507
 1743 00e2 AE60     		str	r6, [r5, #8]	@ float
 1744              	.LVL112:
 1745              		.loc 6 66 71 view .LVU508
ARM GAS  C:\Users\louis\AppData\Local\Temp\ccBNZUOb.s 			page 55


 1746              	.LBE469:
 1747              	.LBE477:
 248:test-daisy-seed.cpp ****     kick_env.SetTime(ADENV_SEG_DECAY, 0.25f);
 1748              		.loc 12 248 5 is_stmt 1 view .LVU509
 1749              	.LBB478:
 1750              	.LBI478:
 1751              		.loc 6 66 17 view .LVU510
 1752              	.LBB479:
 1753              		.loc 6 66 52 view .LVU511
 1754              		.loc 6 66 52 is_stmt 0 view .LVU512
 1755              	.LBE479:
 1756              	.LBE478:
 250:test-daisy-seed.cpp **** 
 1757              		.loc 12 250 5 is_stmt 1 view .LVU513
 1758              	.LBB481:
 1759              	.LBI470:
  27:../../DaisySP//Source/Noise/whitenoise.h ****     {
 1760              		.loc 10 27 10 view .LVU514
 1761              	.LBB473:
  29:../../DaisySP//Source/Noise/whitenoise.h ****         randseed_ = 1;
 1762              		.loc 10 29 9 view .LVU515
  30:../../DaisySP//Source/Noise/whitenoise.h ****     }
 1763              		.loc 10 30 9 view .LVU516
 1764              	.LBE473:
 1765              	.LBE481:
 1766              	.LBB482:
 1767              	.LBB480:
 1768              		.loc 6 66 71 is_stmt 0 view .LVU517
 1769 00e4 C5ED038A 		vstr.32	s17, [r5, #12]
 1770              	.LBE480:
 1771              	.LBE482:
 1772              	.LBB483:
 1773              	.LBB474:
  30:../../DaisySP//Source/Noise/whitenoise.h ****     }
 1774              		.loc 10 30 19 view .LVU518
 1775 00e8 5A60     		str	r2, [r3, #4]
 1776              	.LVL113:
  30:../../DaisySP//Source/Noise/whitenoise.h ****     }
 1777              		.loc 10 30 19 view .LVU519
 1778              	.LBE474:
 1779              	.LBE483:
 1780              		.loc 12 252 5 is_stmt 1 view .LVU520
 1781              		.loc 12 252 22 is_stmt 0 view .LVU521
 1782 00ea FFF7FEFF 		bl	_ZN7daisysp3Svf4InitEf
 1783              	.LVL114:
 253:test-daisy-seed.cpp ****     hihat_filter.SetFreq(8000.0f);
 1784              		.loc 12 253 5 is_stmt 1 view .LVU522
 254:test-daisy-seed.cpp ****     hihat_filter.SetRes(0.7f);
 255:test-daisy-seed.cpp **** 
 256:test-daisy-seed.cpp ****     hihat_env.Init(sr);
 1785              		.loc 12 256 19 is_stmt 0 view .LVU523
 1786 00ee 544D     		ldr	r5, .L55+68
 253:test-daisy-seed.cpp ****     hihat_filter.SetFreq(8000.0f);
 1787              		.loc 12 253 25 view .LVU524
 1788 00f0 9FED540A 		vldr.32	s0, .L55+72
 1789 00f4 5148     		ldr	r0, .L55+64
 1790 00f6 FFF7FEFF 		bl	_ZN7daisysp3Svf7SetFreqEf
ARM GAS  C:\Users\louis\AppData\Local\Temp\ccBNZUOb.s 			page 56


 1791              	.LVL115:
 254:test-daisy-seed.cpp ****     hihat_filter.SetRes(0.7f);
 1792              		.loc 12 254 5 is_stmt 1 view .LVU525
 254:test-daisy-seed.cpp ****     hihat_filter.SetRes(0.7f);
 1793              		.loc 12 254 24 is_stmt 0 view .LVU526
 1794 00fa 9FED530A 		vldr.32	s0, .L55+76
 1795 00fe 4F48     		ldr	r0, .L55+64
 1796 0100 FFF7FEFF 		bl	_ZN7daisysp3Svf6SetResEf
 1797              	.LVL116:
 1798              		.loc 12 256 5 is_stmt 1 view .LVU527
 1799              		.loc 12 256 19 is_stmt 0 view .LVU528
 1800 0104 B0EE480A 		vmov.f32	s0, s16
 1801 0108 2846     		mov	r0, r5
 1802 010a FFF7FEFF 		bl	_ZN7daisysp5AdEnv4InitEf
 1803              	.LVL117:
 257:test-daisy-seed.cpp ****     hihat_env.SetTime(ADENV_SEG_ATTACK, 0.001f);
 1804              		.loc 12 257 5 is_stmt 1 view .LVU529
 1805              	.LBB484:
 1806              	.LBI484:
 1807              		.loc 6 66 17 view .LVU530
 1808              	.LBB485:
 1809              		.loc 6 66 52 view .LVU531
 1810              	.LBE485:
 1811              	.LBE484:
 1812              	.LBB487:
 1813              	.LBB488:
 1814              	.LBB489:
 1815              	.LBB490:
  42:../../DaisySP//Source/Utility/delayline.h ****         }
 1816              		.loc 11 42 22 is_stmt 0 view .LVU532
 1817 010e 4F4B     		ldr	r3, .L55+80
 1818              	.LBE490:
 1819              	.LBE489:
 1820              	.LBE488:
 1821              	.LBE487:
 1822              	.LBB505:
 1823              	.LBB506:
 1824              		.loc 6 66 71 view .LVU533
 1825 0110 4F4A     		ldr	r2, .L55+84
 1826              	.LBE506:
 1827              	.LBE505:
 1828              	.LBB509:
 1829              	.LBB500:
 1830              	.LBB495:
 1831              	.LBB491:
  42:../../DaisySP//Source/Utility/delayline.h ****         }
 1832              		.loc 11 42 22 view .LVU534
 1833 0112 2146     		mov	r1, r4
 1834              	.LBE491:
 1835              	.LBE495:
 1836              	.LBE500:
 1837              	.LBE509:
 1838              	.LBB510:
 1839              	.LBB486:
 1840              		.loc 6 66 71 view .LVU535
 1841 0114 AE60     		str	r6, [r5, #8]	@ float
 1842              	.LVL118:
ARM GAS  C:\Users\louis\AppData\Local\Temp\ccBNZUOb.s 			page 57


 1843              		.loc 6 66 71 view .LVU536
 1844              	.LBE486:
 1845              	.LBE510:
 258:test-daisy-seed.cpp ****     hihat_env.SetTime(ADENV_SEG_DECAY, 0.08f);
 1846              		.loc 12 258 5 is_stmt 1 view .LVU537
 1847              	.LBB511:
 1848              	.LBI505:
 1849              		.loc 6 66 17 view .LVU538
 1850              	.LBB507:
 1851              		.loc 6 66 52 view .LVU539
 1852              		.loc 6 66 52 is_stmt 0 view .LVU540
 1853              	.LBE507:
 1854              	.LBE511:
 1855              	.LBB512:
 1856              	.LBB501:
 1857              	.LBB496:
 1858              	.LBB492:
  40:../../DaisySP//Source/Utility/delayline.h ****         {
 1859              		.loc 11 40 29 is_stmt 1 view .LVU541
  42:../../DaisySP//Source/Utility/delayline.h ****         }
 1860              		.loc 11 42 22 is_stmt 0 view .LVU542
 1861 0116 1846     		mov	r0, r3
 1862              	.LBE492:
 1863              	.LBE496:
 1864              	.LBE501:
 1865              	.LBE512:
 1866              	.LBB513:
 1867              	.LBB508:
 1868              		.loc 6 66 71 view .LVU543
 1869 0118 EA60     		str	r2, [r5, #12]	@ float
 1870              	.LBE508:
 1871              	.LBE513:
 1872              	.LBB514:
 1873              	.LBB502:
 1874              	.LBB497:
 1875              	.LBB493:
  42:../../DaisySP//Source/Utility/delayline.h ****         }
 1876              		.loc 11 42 22 view .LVU544
 1877 011a 4E4A     		ldr	r2, .L55+88
 1878 011c FFF7FEFF 		bl	memset
 1879              	.LVL119:
 1880              	.LBE493:
 1881              	.LBE497:
 1882              	.LBE502:
 1883              	.LBE514:
 259:test-daisy-seed.cpp **** 
 260:test-daisy-seed.cpp ****     // ================== init effets ==================
 261:test-daisy-seed.cpp ****     delay_line.Init();
 262:test-daisy-seed.cpp ****     delay_line.SetDelay(sr * 0.35f);
 1884              		.loc 12 262 24 view .LVU545
 1885 0120 DFED4D7A 		vldr.32	s15, .L55+92
 1886              	.LBB515:
 1887              	.LBB503:
 1888              	.LBB498:
 1889              	.LBB494:
  42:../../DaisySP//Source/Utility/delayline.h ****         }
 1890              		.loc 11 42 22 view .LVU546
ARM GAS  C:\Users\louis\AppData\Local\Temp\ccBNZUOb.s 			page 58


 1891 0124 0346     		mov	r3, r0
 1892              	.LVL120:
  42:../../DaisySP//Source/Utility/delayline.h ****         }
 1893              		.loc 11 42 22 view .LVU547
 1894              	.LBE494:
 1895              	.LBE498:
 1896              	.LBE503:
 1897              	.LBE515:
 1898              	.LBB516:
 1899              	.LBB517:
  64:../../DaisySP//Source/Utility/delayline.h ****                                                            : max_size - 1;
 1900              		.loc 11 64 60 view .LVU548
 1901 0126 4BF67F32 		movw	r2, #47999
 1902              	.LBE517:
 1903              	.LBE516:
 1904              		.loc 12 262 24 view .LVU549
 1905 012a 68EE277A 		vmul.f32	s15, s16, s15
 1906              	.LBB520:
 1907              	.LBB504:
 1908              	.LBB499:
  44:../../DaisySP//Source/Utility/delayline.h ****         delay_     = 1;
 1909              		.loc 11 44 20 view .LVU550
 1910 012e 40F8084C 		str	r4, [r0, #-8]
 1911              	.LBE499:
 1912              	.LBE504:
 1913              	.LBE520:
 1914              		.loc 12 262 5 is_stmt 1 view .LVU551
 1915              	.LVL121:
 1916              	.LBB521:
 1917              	.LBI516:
  60:../../DaisySP//Source/Utility/delayline.h ****     {
 1918              		.loc 11 60 17 view .LVU552
 1919              	.LBE521:
 263:test-daisy-seed.cpp **** 
 264:test-daisy-seed.cpp ****     melody_filter.Init(sr);
 265:test-daisy-seed.cpp ****     melody_filter.SetRes(0.6f);
 266:test-daisy-seed.cpp **** 
 267:test-daisy-seed.cpp ****     lfo.Init(sr);
 1920              		.loc 12 267 13 is_stmt 0 view .LVU553
 1921 0132 4A4E     		ldr	r6, .L55+96
 264:test-daisy-seed.cpp ****     melody_filter.SetRes(0.6f);
 1922              		.loc 12 264 23 view .LVU554
 1923 0134 B0EE480A 		vmov.f32	s0, s16
 268:test-daisy-seed.cpp ****     lfo.SetWaveform(Oscillator::WAVE_SIN);
 269:test-daisy-seed.cpp ****     lfo.SetFreq(0.15f);
 270:test-daisy-seed.cpp **** 
 271:test-daisy-seed.cpp ****     chord_lfo.Init(sr);
 1924              		.loc 12 271 19 view .LVU555
 1925 0138 494D     		ldr	r5, .L55+100
 1926              	.LBB522:
 1927              	.LBB518:
  62:../../DaisySP//Source/Utility/delayline.h ****         frac_             = delay - static_cast<float>(int_delay);
 1928              		.loc 11 62 17 view .LVU556
 1929 013a BDEEE77A 		vcvt.s32.f32	s14, s15
 1930              	.LVL122:
  64:../../DaisySP//Source/Utility/delayline.h ****                                                            : max_size - 1;
 1931              		.loc 11 64 60 view .LVU557
ARM GAS  C:\Users\louis\AppData\Local\Temp\ccBNZUOb.s 			page 59


 1932 013e 17EE100A 		vmov	r0, s14	@ int
  63:../../DaisySP//Source/Utility/delayline.h ****         delay_ = static_cast<size_t>(int_delay) < max_size ? int_delay
 1933              		.loc 11 63 37 view .LVU558
 1934 0142 F8EEC76A 		vcvt.f32.s32	s13, s14
  64:../../DaisySP//Source/Utility/delayline.h ****                                                            : max_size - 1;
 1935              		.loc 11 64 60 view .LVU559
 1936 0146 9042     		cmp	r0, r2
  63:../../DaisySP//Source/Utility/delayline.h ****         delay_ = static_cast<size_t>(int_delay) < max_size ? int_delay
 1937              		.loc 11 63 35 view .LVU560
 1938 0148 77EEE67A 		vsub.f32	s15, s15, s13
 1939              	.LVL123:
  64:../../DaisySP//Source/Utility/delayline.h ****                                                            : max_size - 1;
 1940              		.loc 11 64 60 view .LVU561
 1941 014c 28BF     		it	cs
 1942 014e 1046     		movcs	r0, r2
  64:../../DaisySP//Source/Utility/delayline.h ****                                                            : max_size - 1;
 1943              		.loc 11 64 16 view .LVU562
 1944 0150 43F8040C 		str	r0, [r3, #-4]
 1945              	.LVL124:
  64:../../DaisySP//Source/Utility/delayline.h ****                                                            : max_size - 1;
 1946              		.loc 11 64 16 view .LVU563
 1947              	.LBE518:
 1948              	.LBE522:
 264:test-daisy-seed.cpp ****     melody_filter.SetRes(0.6f);
 1949              		.loc 12 264 5 is_stmt 1 view .LVU564
 264:test-daisy-seed.cpp ****     melody_filter.SetRes(0.6f);
 1950              		.loc 12 264 23 is_stmt 0 view .LVU565
 1951 0154 4348     		ldr	r0, .L55+104
 1952              	.LBB523:
 1953              	.LBB519:
  63:../../DaisySP//Source/Utility/delayline.h ****         delay_ = static_cast<size_t>(int_delay) < max_size ? int_delay
 1954              		.loc 11 63 27 view .LVU566
 1955 0156 43ED037A 		vstr.32	s15, [r3, #-12]
 1956              	.LBE519:
 1957              	.LBE523:
 264:test-daisy-seed.cpp ****     melody_filter.SetRes(0.6f);
 1958              		.loc 12 264 23 view .LVU567
 1959 015a FFF7FEFF 		bl	_ZN7daisysp3Svf4InitEf
 1960              	.LVL125:
 265:test-daisy-seed.cpp **** 
 1961              		.loc 12 265 5 is_stmt 1 view .LVU568
 265:test-daisy-seed.cpp **** 
 1962              		.loc 12 265 25 is_stmt 0 view .LVU569
 1963 015e 9FED420A 		vldr.32	s0, .L55+108
 1964 0162 4048     		ldr	r0, .L55+104
 1965 0164 FFF7FEFF 		bl	_ZN7daisysp3Svf6SetResEf
 1966              	.LVL126:
 267:test-daisy-seed.cpp ****     lfo.SetWaveform(Oscillator::WAVE_SIN);
 1967              		.loc 12 267 5 is_stmt 1 view .LVU570
 267:test-daisy-seed.cpp ****     lfo.SetWaveform(Oscillator::WAVE_SIN);
 1968              		.loc 12 267 13 is_stmt 0 view .LVU571
 1969 0168 3046     		mov	r0, r6
 1970 016a B0EE480A 		vmov.f32	s0, s16
 1971 016e FFF7FEFF 		bl	_ZN7daisysp10Oscillator4InitEf
 1972              	.LVL127:
 268:test-daisy-seed.cpp ****     lfo.SetFreq(0.15f);
 1973              		.loc 12 268 5 is_stmt 1 view .LVU572
ARM GAS  C:\Users\louis\AppData\Local\Temp\ccBNZUOb.s 			page 60


 1974              	.LBB524:
 1975              	.LBI524:
  79:../../DaisySP//Source/Synthesis/oscillator.h ****     {
 1976              		.loc 7 79 17 view .LVU573
 1977              	.LBB525:
 1978              		.loc 7 81 9 view .LVU574
 1979              	.LBE525:
 1980              	.LBE524:
 1981              	.LBB527:
 1982              	.LBB528:
  69:../../DaisySP//Source/Synthesis/oscillator.h ****         phase_inc_ = CalcPhaseInc(f);
 1983              		.loc 7 69 20 is_stmt 0 view .LVU575
 1984 0172 9FED3E0A 		vldr.32	s0, .L55+112
  70:../../DaisySP//Source/Synthesis/oscillator.h ****     }
 1985              		.loc 7 70 34 view .LVU576
 1986 0176 3046     		mov	r0, r6
 1987              	.LBE528:
 1988              	.LBE527:
 1989              	.LBB531:
 1990              	.LBB526:
 1991              		.loc 7 81 19 view .LVU577
 1992 0178 3470     		strb	r4, [r6]
 1993              	.LVL128:
 1994              		.loc 7 81 19 view .LVU578
 1995              	.LBE526:
 1996              	.LBE531:
 269:test-daisy-seed.cpp **** 
 1997              		.loc 12 269 5 is_stmt 1 view .LVU579
 1998              	.LBB532:
 1999              	.LBI527:
  67:../../DaisySP//Source/Synthesis/oscillator.h ****     {
 2000              		.loc 7 67 17 view .LVU580
 2001              	.LBB529:
  69:../../DaisySP//Source/Synthesis/oscillator.h ****         phase_inc_ = CalcPhaseInc(f);
 2002              		.loc 7 69 9 view .LVU581
  69:../../DaisySP//Source/Synthesis/oscillator.h ****         phase_inc_ = CalcPhaseInc(f);
 2003              		.loc 7 69 20 is_stmt 0 view .LVU582
 2004 017a 86ED020A 		vstr.32	s0, [r6, #8]
  70:../../DaisySP//Source/Synthesis/oscillator.h ****     }
 2005              		.loc 7 70 9 is_stmt 1 view .LVU583
  70:../../DaisySP//Source/Synthesis/oscillator.h ****     }
 2006              		.loc 7 70 34 is_stmt 0 view .LVU584
 2007 017e FFF7FEFF 		bl	_ZN7daisysp10Oscillator12CalcPhaseIncEf
 2008              	.LVL129:
 2009 0182 F0EE407A 		vmov.f32	s15, s0
 2010              	.LBE529:
 2011              	.LBE532:
 2012              		.loc 12 271 19 view .LVU585
 2013 0186 2846     		mov	r0, r5
 2014 0188 B0EE480A 		vmov.f32	s0, s16
 2015              	.LBB533:
 2016              	.LBB530:
  70:../../DaisySP//Source/Synthesis/oscillator.h ****     }
 2017              		.loc 7 70 20 view .LVU586
 2018 018c C6ED077A 		vstr.32	s15, [r6, #28]
 2019              	.LVL130:
  70:../../DaisySP//Source/Synthesis/oscillator.h ****     }
ARM GAS  C:\Users\louis\AppData\Local\Temp\ccBNZUOb.s 			page 61


 2020              		.loc 7 70 20 view .LVU587
 2021              	.LBE530:
 2022              	.LBE533:
 2023              		.loc 12 271 5 is_stmt 1 view .LVU588
 2024              		.loc 12 271 19 is_stmt 0 view .LVU589
 2025 0190 FFF7FEFF 		bl	_ZN7daisysp10Oscillator4InitEf
 2026              	.LVL131:
 272:test-daisy-seed.cpp ****     chord_lfo.SetWaveform(Oscillator::WAVE_SIN);
 2027              		.loc 12 272 5 is_stmt 1 view .LVU590
 2028              	.LBB534:
 2029              	.LBI534:
  79:../../DaisySP//Source/Synthesis/oscillator.h ****     {
 2030              		.loc 7 79 17 view .LVU591
 2031              	.LBB535:
 2032              		.loc 7 81 9 view .LVU592
 2033              	.LBE535:
 2034              	.LBE534:
 2035              	.LBB537:
 2036              	.LBB538:
  69:../../DaisySP//Source/Synthesis/oscillator.h ****         phase_inc_ = CalcPhaseInc(f);
 2037              		.loc 7 69 20 is_stmt 0 view .LVU593
 2038 0194 9FED360A 		vldr.32	s0, .L55+116
  70:../../DaisySP//Source/Synthesis/oscillator.h ****     }
 2039              		.loc 7 70 34 view .LVU594
 2040 0198 2846     		mov	r0, r5
 2041              	.LBE538:
 2042              	.LBE537:
 2043              	.LBB541:
 2044              	.LBB536:
 2045              		.loc 7 81 19 view .LVU595
 2046 019a 2C70     		strb	r4, [r5]
 2047              	.LVL132:
 2048              		.loc 7 81 19 view .LVU596
 2049              	.LBE536:
 2050              	.LBE541:
 273:test-daisy-seed.cpp ****     chord_lfo.SetFreq(0.03f);
 2051              		.loc 12 273 5 is_stmt 1 view .LVU597
 2052              	.LBB542:
 2053              	.LBI537:
  67:../../DaisySP//Source/Synthesis/oscillator.h ****     {
 2054              		.loc 7 67 17 view .LVU598
 2055              	.LBB539:
  69:../../DaisySP//Source/Synthesis/oscillator.h ****         phase_inc_ = CalcPhaseInc(f);
 2056              		.loc 7 69 9 view .LVU599
  69:../../DaisySP//Source/Synthesis/oscillator.h ****         phase_inc_ = CalcPhaseInc(f);
 2057              		.loc 7 69 20 is_stmt 0 view .LVU600
 2058 019c 85ED020A 		vstr.32	s0, [r5, #8]
  70:../../DaisySP//Source/Synthesis/oscillator.h ****     }
 2059              		.loc 7 70 9 is_stmt 1 view .LVU601
  70:../../DaisySP//Source/Synthesis/oscillator.h ****     }
 2060              		.loc 7 70 34 is_stmt 0 view .LVU602
 2061 01a0 FFF7FEFF 		bl	_ZN7daisysp10Oscillator12CalcPhaseIncEf
 2062              	.LVL133:
 2063              	.LBE539:
 2064              	.LBE542:
 274:test-daisy-seed.cpp **** 
 275:test-daisy-seed.cpp ****     lp_filter.Init();
ARM GAS  C:\Users\louis\AppData\Local\Temp\ccBNZUOb.s 			page 62


 276:test-daisy-seed.cpp ****     lp_filter.SetFilterMode(OnePole::FILTER_MODE_LOW_PASS);
 277:test-daisy-seed.cpp ****     lp_filter.SetFrequency(400.0f / sr);
 2065              		.loc 12 277 27 view .LVU603
 2066 01a4 9FED336A 		vldr.32	s12, .L55+120
 2067              	.LBB543:
 2068              	.LBB544:
 2069              	.LBB545:
 2070              	.LBB546:
  51:../../DaisySP//Source/Filters/onepole.h **** 
 2071              		.loc 9 51 34 view .LVU604
 2072 01a8 0023     		movs	r3, #0
 2073              	.LBE546:
 2074              	.LBE545:
 2075              	.LBE544:
 2076              	.LBE543:
 2077              	.LBB555:
 2078              	.LBB556:
  59:../../DaisySP//Source/Filters/onepole.h **** 
 2079              		.loc 9 59 30 view .LVU605
 2080 01aa 9FED337A 		vldr.32	s14, .L55+124
 2081              	.LBE556:
 2082              	.LBE555:
 2083              		.loc 12 277 27 view .LVU606
 2084 01ae C6EE087A 		vdiv.f32	s15, s12, s16
 2085              	.LBB560:
 2086              	.LBB557:
  61:../../DaisySP//Source/Filters/onepole.h ****         gi_ = 1.f / (1.f + g_);
 2087              		.loc 9 61 19 view .LVU607
 2088 01b2 DFED326A 		vldr.32	s13, .L55+128
 2089              	.LBE557:
 2090              	.LBE560:
 2091              	.LBB561:
 2092              	.LBB553:
 2093              	.LBB550:
 2094              	.LBB547:
  51:../../DaisySP//Source/Filters/onepole.h **** 
 2095              		.loc 9 51 34 view .LVU608
 2096 01b6 324E     		ldr	r6, .L55+132
 2097              	.LBE547:
 2098              	.LBE550:
 2099              	.LBE553:
 2100              	.LBE561:
 2101              	.LBB562:
 2102              	.LBB540:
  70:../../DaisySP//Source/Synthesis/oscillator.h ****     }
 2103              		.loc 7 70 20 view .LVU609
 2104 01b8 85ED070A 		vstr.32	s0, [r5, #28]
 2105              	.LVL134:
  70:../../DaisySP//Source/Synthesis/oscillator.h ****     }
 2106              		.loc 7 70 20 view .LVU610
 2107              	.LBE540:
 2108              	.LBE562:
 275:test-daisy-seed.cpp ****     lp_filter.SetFilterMode(OnePole::FILTER_MODE_LOW_PASS);
 2109              		.loc 12 275 5 is_stmt 1 view .LVU611
 2110              	.LBB563:
 2111              	.LBI543:
  44:../../DaisySP//Source/Filters/onepole.h ****     {
ARM GAS  C:\Users\louis\AppData\Local\Temp\ccBNZUOb.s 			page 63


 2112              		.loc 9 44 10 view .LVU612
 2113              	.LBB554:
  46:../../DaisySP//Source/Filters/onepole.h ****         mode_ = FILTER_MODE_LOW_PASS;
 2114              		.loc 9 46 9 view .LVU613
 2115              	.LBB551:
 2116              	.LBI545:
  51:../../DaisySP//Source/Filters/onepole.h **** 
 2117              		.loc 9 51 17 view .LVU614
 2118              	.LBB548:
  51:../../DaisySP//Source/Filters/onepole.h **** 
 2119              		.loc 9 51 27 view .LVU615
 2120              	.LBE548:
 2121              	.LBE551:
  47:../../DaisySP//Source/Filters/onepole.h ****     }
 2122              		.loc 9 47 15 is_stmt 0 view .LVU616
 2123 01bc 3473     		strb	r4, [r6, #12]
 2124              	.LBB552:
 2125              	.LBB549:
  51:../../DaisySP//Source/Filters/onepole.h **** 
 2126              		.loc 9 51 34 view .LVU617
 2127 01be B360     		str	r3, [r6, #8]	@ float
 2128              	.LVL135:
  51:../../DaisySP//Source/Filters/onepole.h **** 
 2129              		.loc 9 51 34 view .LVU618
 2130              	.LBE549:
 2131              	.LBE552:
  47:../../DaisySP//Source/Filters/onepole.h ****     }
 2132              		.loc 9 47 9 is_stmt 1 view .LVU619
  47:../../DaisySP//Source/Filters/onepole.h ****     }
 2133              		.loc 9 47 9 is_stmt 0 view .LVU620
 2134              	.LBE554:
 2135              	.LBE563:
 276:test-daisy-seed.cpp ****     lp_filter.SetFrequency(400.0f / sr);
 2136              		.loc 12 276 5 is_stmt 1 view .LVU621
  68:../../DaisySP//Source/Filters/onepole.h **** 
 2137              		.loc 9 68 50 view .LVU622
 2138              		.loc 12 277 5 view .LVU623
 2139              	.LBB564:
 2140              	.LBI555:
  56:../../DaisySP//Source/Filters/onepole.h ****     {
 2141              		.loc 9 56 17 view .LVU624
 2142              	.LBB558:
  59:../../DaisySP//Source/Filters/onepole.h **** 
 2143              		.loc 9 59 9 view .LVU625
  59:../../DaisySP//Source/Filters/onepole.h **** 
 2144              		.loc 9 59 30 is_stmt 0 view .LVU626
 2145 01c0 F4EEC77A 		vcmpe.f32	s15, s14
 2146 01c4 F1EE10FA 		vmrs	APSR_nzcv, FPSCR
 2147 01c8 58BF     		it	pl
 2148 01ca F0EE477A 		vmovpl.f32	s15, s14
 2149              	.LVL136:
  61:../../DaisySP//Source/Filters/onepole.h ****         gi_ = 1.f / (1.f + g_);
 2150              		.loc 9 61 9 is_stmt 1 view .LVU627
  61:../../DaisySP//Source/Filters/onepole.h ****         gi_ = 1.f / (1.f + g_);
 2151              		.loc 9 61 19 is_stmt 0 view .LVU628
 2152 01ce 27EEA60A 		vmul.f32	s0, s15, s13
 2153 01d2 FFF7FEFF 		bl	tanf
ARM GAS  C:\Users\louis\AppData\Local\Temp\ccBNZUOb.s 			page 64


 2154              	.LVL137:
  62:../../DaisySP//Source/Filters/onepole.h ****     }
 2155              		.loc 9 62 26 view .LVU629
 2156 01d6 F7EE007A 		vmov.f32	s15, #1.0e+0
 2157              	.LBE558:
 2158              	.LBE564:
 278:test-daisy-seed.cpp **** 
 279:test-daisy-seed.cpp ****     hw.StartAudio(AudioCallback);
 2159              		.loc 12 279 18 view .LVU630
 2160 01da 2A49     		ldr	r1, .L55+136
 2161 01dc 0748     		ldr	r0, .L55
 2162              	.LBB565:
 2163              	.LBB559:
  62:../../DaisySP//Source/Filters/onepole.h ****     }
 2164              		.loc 9 62 26 view .LVU631
 2165 01de 70EE276A 		vadd.f32	s13, s0, s15
  61:../../DaisySP//Source/Filters/onepole.h ****         gi_ = 1.f / (1.f + g_);
 2166              		.loc 9 61 13 view .LVU632
 2167 01e2 86ED000A 		vstr.32	s0, [r6]
  62:../../DaisySP//Source/Filters/onepole.h ****     }
 2168              		.loc 9 62 9 is_stmt 1 view .LVU633
  62:../../DaisySP//Source/Filters/onepole.h ****     }
 2169              		.loc 9 62 19 is_stmt 0 view .LVU634
 2170 01e6 87EEA67A 		vdiv.f32	s14, s15, s13
  62:../../DaisySP//Source/Filters/onepole.h ****     }
 2171              		.loc 9 62 13 view .LVU635
 2172 01ea 86ED017A 		vstr.32	s14, [r6, #4]
 2173              	.LVL138:
  62:../../DaisySP//Source/Filters/onepole.h ****     }
 2174              		.loc 9 62 13 view .LVU636
 2175              	.LBE559:
 2176              	.LBE565:
 2177              		.loc 12 279 5 is_stmt 1 view .LVU637
 2178              		.loc 12 279 18 is_stmt 0 view .LVU638
 2179 01ee FFF7FEFF 		bl	_ZN5daisy9DaisySeed10StartAudioEPFvPKfPfjE
 2180              	.LVL139:
 2181              	.L53:
 280:test-daisy-seed.cpp **** 
 281:test-daisy-seed.cpp ****     while(1)
 2182              		.loc 12 281 5 is_stmt 1 discriminator 1 view .LVU639
 282:test-daisy-seed.cpp ****     {
 283:test-daisy-seed.cpp ****         System::Delay(1000);
 2183              		.loc 12 283 9 discriminator 1 view .LVU640
 2184              		.loc 12 283 22 is_stmt 0 discriminator 1 view .LVU641
 2185 01f2 4FF47A70 		mov	r0, #1000
 2186 01f6 FFF7FEFF 		bl	_ZN5daisy6System5DelayEm
 2187              	.LVL140:
 281:test-daisy-seed.cpp ****     {
 2188              		.loc 12 281 5 is_stmt 1 discriminator 1 view .LVU642
 2189 01fa FAE7     		b	.L53
 2190              	.L56:
 2191              		.align	2
 2192              	.L55:
 2193 01fc 00000000 		.word	.LANCHOR28
 2194 0200 00000000 		.word	.LANCHOR0
 2195 0204 00000000 		.word	.LANCHOR1
 2196 0208 00000000 		.word	.LANCHOR9
ARM GAS  C:\Users\louis\AppData\Local\Temp\ccBNZUOb.s 			page 65


 2197 020c 00000000 		.word	.LANCHOR21
 2198 0210 00000000 		.word	.LANCHOR25
 2199 0214 00000000 		.word	.LANCHOR27
 2200 0218 00000000 		.word	.LANCHOR8
 2201 021c 00004040 		.word	1077936128
 2202 0220 00000000 		.word	.LANCHOR10
 2203 0224 00000000 		.word	.LANCHOR11
 2204 0228 00000000 		.word	.LANCHOR15
 2205 022c 0000C040 		.word	1086324736
 2206 0230 00000000 		.word	.LANCHOR14
 2207 0234 00000000 		.word	.LANCHOR16
 2208 0238 6F12833A 		.word	981668463
 2209 023c 00000000 		.word	.LANCHOR17
 2210 0240 00000000 		.word	.LANCHOR18
 2211 0244 0000FA45 		.word	1174011904
 2212 0248 3333333F 		.word	1060320051
 2213 024c 0C000000 		.word	delay_line+12
 2214 0250 0AD7A33D 		.word	1034147594
 2215 0254 00EE0200 		.word	192000
 2216 0258 3333B33E 		.word	1051931443
 2217 025c 00000000 		.word	.LANCHOR2
 2218 0260 00000000 		.word	.LANCHOR12
 2219 0264 00000000 		.word	.LANCHOR3
 2220 0268 9A99193F 		.word	1058642330
 2221 026c 9A99193E 		.word	1041865114
 2222 0270 8FC2F53C 		.word	1022739087
 2223 0274 0000C843 		.word	1137180672
 2224 0278 C976FE3E 		.word	1056863945
 2225 027c DB0F4940 		.word	1078530011
 2226 0280 00000000 		.word	.LANCHOR19
 2227 0284 00000000 		.word	_Z13AudioCallbackPKfPfj
 2228              		.cfi_endproc
 2229              	.LFE4682:
 2231              		.section	.text.startup._GLOBAL__sub_I_note_counter,"ax",%progbits
 2232              		.align	1
 2233              		.p2align 2,,3
 2234              		.syntax unified
 2235              		.thumb
 2236              		.thumb_func
 2237              		.fpu fpv5-d16
 2239              	_GLOBAL__sub_I_note_counter:
 2240              	.LFB5256:
 284:test-daisy-seed.cpp ****     }
 285:test-daisy-seed.cpp **** }...
 2241              		.loc 12 285 1 view -0
 2242              		.cfi_startproc
 2243              		@ args = 0, pretend = 0, frame = 0
 2244              		@ frame_needed = 0, uses_anonymous_args = 0
 2245              	.LBB619:
 2246              	.LBI619:
 2247              		.loc 12 285 1 view .LVU644
 2248              	.LVL141:
 2249              	.LBB620:
 2250              	.LBB621:
 2251              	.LBI621:
  21:../../libDaisy//src/daisy_seed.h ****     ~DaisySeed() {}
 2252              		.loc 1 21 5 view .LVU645
ARM GAS  C:\Users\louis\AppData\Local\Temp\ccBNZUOb.s 			page 66


 2253              	.LBB622:
 2254              	.LBB623:
 2255              	.LBI623:
 2256              		.file 13 "../../libDaisy//src/per/qspi.h"
   1:../../libDaisy//src/per/qspi.h **** #ifndef DSY_QSPI
   2:../../libDaisy//src/per/qspi.h **** #define DSY_QSPI /**< Macro */
   3:../../libDaisy//src/per/qspi.h **** 
   4:../../libDaisy//src/per/qspi.h **** #ifndef UNIT_TEST // for unit tests, a dummy implementation
   5:../../libDaisy//src/per/qspi.h **** 
   6:../../libDaisy//src/per/qspi.h **** #include <cstdint>
   7:../../libDaisy//src/per/qspi.h **** #include "daisy_core.h" // Added for dsy_gpio_pin typedef
   8:../../libDaisy//src/per/qspi.h **** 
   9:../../libDaisy//src/per/qspi.h **** #define DSY_QSPI_TEXT       \
  10:../../libDaisy//src/per/qspi.h ****     __attribute__((section( \
  11:../../libDaisy//src/per/qspi.h ****         ".qspiflash_text"))) /**< used for reading memory in memory_mapped mode. */
  12:../../libDaisy//src/per/qspi.h **** #define DSY_QSPI_DATA       \
  13:../../libDaisy//src/per/qspi.h ****     __attribute__((section( \
  14:../../libDaisy//src/per/qspi.h ****         ".qspiflash_data"))) /**< used for reading memory in memory_mapped mode. */
  15:../../libDaisy//src/per/qspi.h **** #define DSY_QSPI_BSS        \
  16:../../libDaisy//src/per/qspi.h ****     __attribute__((section( \
  17:../../libDaisy//src/per/qspi.h ****         ".qspiflash_bss"))) /**< used for reading memory in memory_mapped mode. */
  18:../../libDaisy//src/per/qspi.h **** 
  19:../../libDaisy//src/per/qspi.h **** namespace daisy
  20:../../libDaisy//src/per/qspi.h **** {
  21:../../libDaisy//src/per/qspi.h **** /** @addtogroup serial
  22:../../libDaisy//src/per/qspi.h **** @{
  23:../../libDaisy//src/per/qspi.h **** */
  24:../../libDaisy//src/per/qspi.h **** 
  25:../../libDaisy//src/per/qspi.h **** /** 
  26:../../libDaisy//src/per/qspi.h ****  Driver for QSPI peripheral to interface with external flash memory. \n 
  27:../../libDaisy//src/per/qspi.h ****     Currently supported QSPI Devices: \n 
  28:../../libDaisy//src/per/qspi.h ****     * IS25LP080D
  29:../../libDaisy//src/per/qspi.h **** */
  30:../../libDaisy//src/per/qspi.h **** class QSPIHandle
  31:../../libDaisy//src/per/qspi.h **** {
  32:../../libDaisy//src/per/qspi.h ****   public:
  33:../../libDaisy//src/per/qspi.h ****     enum Result
  34:../../libDaisy//src/per/qspi.h ****     {
  35:../../libDaisy//src/per/qspi.h ****         OK = 0,
  36:../../libDaisy//src/per/qspi.h ****         ERR
  37:../../libDaisy//src/per/qspi.h ****     };
  38:../../libDaisy//src/per/qspi.h **** 
  39:../../libDaisy//src/per/qspi.h ****     /** Indicates the current status of the module. 
  40:../../libDaisy//src/per/qspi.h ****          *  Warnings are indicated by a leading W.
  41:../../libDaisy//src/per/qspi.h ****          *  Errors are indicated by a leading E and cause an immediate exit.
  42:../../libDaisy//src/per/qspi.h ****          * 
  43:../../libDaisy//src/per/qspi.h ****          *  \param GOOD - No errors have been reported.
  44:../../libDaisy//src/per/qspi.h ****          *  \param E_HAL_ERROR - HAL code did not return HAL_OK.
  45:../../libDaisy//src/per/qspi.h ****          *  \param E_SWITCHING_MODES - An error was encountered while switching QSPI peripheral mod
  46:../../libDaisy//src/per/qspi.h ****          *  \param E_INVALID_MODE - QSPI should not be written to while the program is executing fr
  47:../../libDaisy//src/per/qspi.h ****          */
  48:../../libDaisy//src/per/qspi.h ****     enum Status
  49:../../libDaisy//src/per/qspi.h ****     {
  50:../../libDaisy//src/per/qspi.h ****         GOOD = 0,
  51:../../libDaisy//src/per/qspi.h ****         E_HAL_ERROR,
  52:../../libDaisy//src/per/qspi.h ****         E_SWITCHING_MODES,
  53:../../libDaisy//src/per/qspi.h ****         E_INVALID_MODE,
ARM GAS  C:\Users\louis\AppData\Local\Temp\ccBNZUOb.s 			page 67


  54:../../libDaisy//src/per/qspi.h ****     };
  55:../../libDaisy//src/per/qspi.h **** 
  56:../../libDaisy//src/per/qspi.h ****     /** Configuration structure for interfacing with QSPI Driver */
  57:../../libDaisy//src/per/qspi.h ****     struct Config
  58:../../libDaisy//src/per/qspi.h ****     {
  59:../../libDaisy//src/per/qspi.h ****         /** Flash Devices supported. (Both of these are more-or-less the same, just different sizes
  60:../../libDaisy//src/per/qspi.h ****         enum Device
  61:../../libDaisy//src/per/qspi.h ****         {
  62:../../libDaisy//src/per/qspi.h ****             IS25LP080D,  /**< & */
  63:../../libDaisy//src/per/qspi.h ****             IS25LP064A,  /**< & */
  64:../../libDaisy//src/per/qspi.h ****             DEVICE_LAST, /**< & */
  65:../../libDaisy//src/per/qspi.h ****         };
  66:../../libDaisy//src/per/qspi.h **** 
  67:../../libDaisy//src/per/qspi.h ****         /** 
  68:../../libDaisy//src/per/qspi.h ****         Modes of operation.
  69:../../libDaisy//src/per/qspi.h ****         Memory Mapped mode: QSPI configured so that the QSPI can be
  70:../../libDaisy//src/per/qspi.h ****         read from starting address 0x90000000. Writing is not
  71:../../libDaisy//src/per/qspi.h ****         possible in this mode. \n 
  72:../../libDaisy//src/per/qspi.h ****         Indirect Polling mode: Device driver enabled. 
  73:../../libDaisy//src/per/qspi.h ****         */
  74:../../libDaisy//src/per/qspi.h ****         enum Mode
  75:../../libDaisy//src/per/qspi.h ****         {
  76:../../libDaisy//src/per/qspi.h ****             MEMORY_MAPPED,    /**< & */
  77:../../libDaisy//src/per/qspi.h ****             INDIRECT_POLLING, /**< & */
  78:../../libDaisy//src/per/qspi.h ****             MODE_LAST,
  79:../../libDaisy//src/per/qspi.h ****         };
  80:../../libDaisy//src/per/qspi.h **** 
  81:../../libDaisy//src/per/qspi.h ****         //SCK,  CE# (active low)
  82:../../libDaisy//src/per/qspi.h ****         struct
  83:../../libDaisy//src/per/qspi.h ****         {
  84:../../libDaisy//src/per/qspi.h ****             dsy_gpio_pin io0; /**< & */
  85:../../libDaisy//src/per/qspi.h ****             dsy_gpio_pin io1; /**< & */
  86:../../libDaisy//src/per/qspi.h ****             dsy_gpio_pin io2; /**< & */
  87:../../libDaisy//src/per/qspi.h ****             dsy_gpio_pin io3; /**< & */
  88:../../libDaisy//src/per/qspi.h ****             dsy_gpio_pin clk; /**< & */
  89:../../libDaisy//src/per/qspi.h ****             dsy_gpio_pin ncs; /**< & */
  90:../../libDaisy//src/per/qspi.h ****         } pin_config;
  91:../../libDaisy//src/per/qspi.h **** 
  92:../../libDaisy//src/per/qspi.h ****         Device device;
  93:../../libDaisy//src/per/qspi.h ****         Mode   mode;
  94:../../libDaisy//src/per/qspi.h ****     };
  95:../../libDaisy//src/per/qspi.h **** 
  96:../../libDaisy//src/per/qspi.h ****     /** 
  97:../../libDaisy//src/per/qspi.h ****         Initializes QSPI peripheral, and Resets, and prepares memory for access.
  98:../../libDaisy//src/per/qspi.h ****         \param config should be populated with the mode, device and pin_config before calling this 
  99:../../libDaisy//src/per/qspi.h ****         \return Result::OK or Result::ERR
 100:../../libDaisy//src/per/qspi.h ****         */
 101:../../libDaisy//src/per/qspi.h ****     Result Init(const Config& config);
 102:../../libDaisy//src/per/qspi.h **** 
 103:../../libDaisy//src/per/qspi.h ****     /** Returns the current config. */
 104:../../libDaisy//src/per/qspi.h ****     const Config& GetConfig() const;
 105:../../libDaisy//src/per/qspi.h **** 
 106:../../libDaisy//src/per/qspi.h ****     // Couldn't this just be called before anything else in init? That
 107:../../libDaisy//src/per/qspi.h ****     // would make manually calling it unnecessary.
 108:../../libDaisy//src/per/qspi.h ****     /** 
 109:../../libDaisy//src/per/qspi.h ****         Deinitializes the peripheral
 110:../../libDaisy//src/per/qspi.h ****         This should be called before reinitializing QSPI in a different mode.
ARM GAS  C:\Users\louis\AppData\Local\Temp\ccBNZUOb.s 			page 68


 111:../../libDaisy//src/per/qspi.h ****         \return Result::OK or Result::ERR
 112:../../libDaisy//src/per/qspi.h ****         */
 113:../../libDaisy//src/per/qspi.h ****     Result DeInit();
 114:../../libDaisy//src/per/qspi.h **** 
 115:../../libDaisy//src/per/qspi.h ****     /** 
 116:../../libDaisy//src/per/qspi.h ****         Writes a single page to to the specified address on the QSPI chip.
 117:../../libDaisy//src/per/qspi.h ****         For IS25LP*, page size is 256 bytes.
 118:../../libDaisy//src/per/qspi.h ****         \param address Address to write to
 119:../../libDaisy//src/per/qspi.h ****         \param size Buffer size
 120:../../libDaisy//src/per/qspi.h ****         \param buffer Buffer to write
 121:../../libDaisy//src/per/qspi.h ****         \return Result::OK or Result::ERR
 122:../../libDaisy//src/per/qspi.h ****         */
 123:../../libDaisy//src/per/qspi.h ****     Result WritePage(uint32_t address, uint32_t size, uint8_t* buffer);
 124:../../libDaisy//src/per/qspi.h **** 
 125:../../libDaisy//src/per/qspi.h ****     /** 
 126:../../libDaisy//src/per/qspi.h ****         Writes data in buffer to to the QSPI. Starting at address to address+size 
 127:../../libDaisy//src/per/qspi.h ****         \param address Address to write to
 128:../../libDaisy//src/per/qspi.h ****         \param size Buffer size
 129:../../libDaisy//src/per/qspi.h ****         \param buffer Buffer to write
 130:../../libDaisy//src/per/qspi.h ****         \return Result::OK or Result::ERR
 131:../../libDaisy//src/per/qspi.h ****         */
 132:../../libDaisy//src/per/qspi.h ****     Result Write(uint32_t address, uint32_t size, uint8_t* buffer);
 133:../../libDaisy//src/per/qspi.h **** 
 134:../../libDaisy//src/per/qspi.h ****     /** 
 135:../../libDaisy//src/per/qspi.h ****         Erases the area specified on the chip.
 136:../../libDaisy//src/per/qspi.h ****         Erasures will happen by 4K, 32K or 64K increments.
 137:../../libDaisy//src/per/qspi.h ****         Smallest erase possible is 4kB at a time. (on IS25LP*)
 138:../../libDaisy//src/per/qspi.h ****         \param start_addr Address to begin erasing from
 139:../../libDaisy//src/per/qspi.h ****         \param end_addr  Address to stop erasing at
 140:../../libDaisy//src/per/qspi.h ****         \return Result::OK or Result::ERR
 141:../../libDaisy//src/per/qspi.h ****         */
 142:../../libDaisy//src/per/qspi.h ****     Result Erase(uint32_t start_addr, uint32_t end_addr);
 143:../../libDaisy//src/per/qspi.h **** 
 144:../../libDaisy//src/per/qspi.h ****     /**  
 145:../../libDaisy//src/per/qspi.h ****          Erases a single sector of the chip.  
 146:../../libDaisy//src/per/qspi.h ****         TODO: Document the size of this function. 
 147:../../libDaisy//src/per/qspi.h ****         \param address Address of sector to erase
 148:../../libDaisy//src/per/qspi.h ****         \return Result::OK or Result::ERR
 149:../../libDaisy//src/per/qspi.h ****         */
 150:../../libDaisy//src/per/qspi.h ****     Result EraseSector(uint32_t address);
 151:../../libDaisy//src/per/qspi.h **** 
 152:../../libDaisy//src/per/qspi.h ****     /** Returns the current class status. Useful for debugging.
 153:../../libDaisy//src/per/qspi.h ****      *  \returns Status
 154:../../libDaisy//src/per/qspi.h ****      */
 155:../../libDaisy//src/per/qspi.h ****     Status GetStatus();
 156:../../libDaisy//src/per/qspi.h **** 
 157:../../libDaisy//src/per/qspi.h ****     /** Returns a pointer to the actual memory used 
 158:../../libDaisy//src/per/qspi.h ****      *  The memory at this address is read-only
 159:../../libDaisy//src/per/qspi.h ****      *  to write to it use the Write function.
 160:../../libDaisy//src/per/qspi.h ****      * 
 161:../../libDaisy//src/per/qspi.h ****      *  \param offset returns the pointer starting this 
 162:../../libDaisy//src/per/qspi.h ****      *                many bytes into the memory
 163:../../libDaisy//src/per/qspi.h ****     */
 164:../../libDaisy//src/per/qspi.h ****     void* GetData(uint32_t offset = 0);
 165:../../libDaisy//src/per/qspi.h **** 
 166:../../libDaisy//src/per/qspi.h ****     QSPIHandle() : pimpl_(nullptr) {}
 2257              		.loc 13 166 5 view .LVU646
ARM GAS  C:\Users\louis\AppData\Local\Temp\ccBNZUOb.s 			page 69


 2258              	.LBE623:
 2259              	.LBE622:
 2260              	.LBE621:
 2261              	.LBE620:
 2262              	.LBE619:
 2263              		.loc 12 285 1 is_stmt 0 view .LVU647
 2264 0000 F8B5     		push	{r3, r4, r5, r6, r7, lr}
 2265              		.cfi_def_cfa_offset 24
 2266              		.cfi_offset 3, -24
 2267              		.cfi_offset 4, -20
 2268              		.cfi_offset 5, -16
 2269              		.cfi_offset 6, -12
 2270              		.cfi_offset 7, -8
 2271              		.cfi_offset 14, -4
 2272              	.LBB667:
 2273              	.LBB665:
 2274              	.LBB646:
 2275              	.LBB643:
 2276              	.LBB628:
 2277              	.LBB624:
 2278              	.LBB625:
 2279              		.loc 13 166 34 view .LVU648
 2280 0002 3048     		ldr	r0, .L59
 2281 0004 0023     		movs	r3, #0
 2282              	.LBE625:
 2283              	.LBE624:
 2284              	.LBE628:
 2285              	.LBE643:
 2286              	.LBE646:
  30:test-daisy-seed.cpp **** DaisySeed hw;
 2287              		.loc 12 30 11 view .LVU649
 2288 0006 304C     		ldr	r4, .L59+4
 2289              	.LBB647:
 2290              	.LBB644:
 2291              	.LBB629:
 2292              	.LBB627:
 2293              	.LBB626:
 2294              		.loc 13 166 34 view .LVU650
 2295 0008 0360     		str	r3, [r0]
 2296              	.LVL142:
 2297              		.loc 13 166 34 view .LVU651
 2298              	.LBE626:
 2299              	.LBE627:
 2300              	.LBE629:
 2301              	.LBB630:
 2302              	.LBI630:
  95:../../libDaisy//src/hid/audio.h ****     ~AudioHandle() {}
 2303              		.loc 5 95 5 is_stmt 1 view .LVU652
 2304              	.LBB631:
 2305              	.LBB632:
  95:../../libDaisy//src/hid/audio.h ****     ~AudioHandle() {}
 2306              		.loc 5 95 35 is_stmt 0 view .LVU653
 2307 000a 4361     		str	r3, [r0, #20]
 2308              	.LVL143:
  95:../../libDaisy//src/hid/audio.h ****     ~AudioHandle() {}
 2309              		.loc 5 95 35 view .LVU654
 2310              	.LBE632:
ARM GAS  C:\Users\louis\AppData\Local\Temp\ccBNZUOb.s 			page 70


 2311              	.LBE631:
 2312              	.LBE630:
 2313              	.LBB633:
 2314              	.LBI633:
 109:../../libDaisy//src/per/adc.h ****     ~AdcHandle() {}
 2315              		.loc 4 109 5 is_stmt 1 view .LVU655
 109:../../libDaisy//src/per/adc.h ****     ~AdcHandle() {}
 2316              		.loc 4 109 5 is_stmt 0 view .LVU656
 2317              	.LBE633:
 2318              	.LBB634:
 2319              	.LBI634:
 2320              		.file 14 "../../libDaisy//src/per/dac.h"
   1:../../libDaisy//src/per/dac.h **** #pragma once
   2:../../libDaisy//src/per/dac.h **** #ifndef DSY_DAC_H
   3:../../libDaisy//src/per/dac.h **** #define DSY_DAC_H
   4:../../libDaisy//src/per/dac.h **** 
   5:../../libDaisy//src/per/dac.h **** #include "daisy_core.h"
   6:../../libDaisy//src/per/dac.h **** 
   7:../../libDaisy//src/per/dac.h **** namespace daisy
   8:../../libDaisy//src/per/dac.h **** {
   9:../../libDaisy//src/per/dac.h **** /** @brief DAC handle for Built-in DAC Peripheral 
  10:../../libDaisy//src/per/dac.h ****  *  @ingroup per_analog
  11:../../libDaisy//src/per/dac.h ****  ** 
  12:../../libDaisy//src/per/dac.h ****  ** For now only Normal Mode is supported,
  13:../../libDaisy//src/per/dac.h ****  ** Sample and hold mode provides reduced power consumption, but requires a bit more setup.
  14:../../libDaisy//src/per/dac.h ****  **
  15:../../libDaisy//src/per/dac.h ****  ** For now connecting the DAC through other internal peripherals is also not supported.
  16:../../libDaisy//src/per/dac.h ****  **
  17:../../libDaisy//src/per/dac.h ****  ** Since the DAC channels have dedicated pins we don't need to pass in a pin config like with
  18:../../libDaisy//src/per/dac.h ****  ** other modules. However, it is still important to not try to use the DAC pins for anything else.
  19:../../libDaisy//src/per/dac.h ****  ** DAC Channel 1 is on PA4, and DAC Channel 2 is on PA5
  20:../../libDaisy//src/per/dac.h ****  ***/
  21:../../libDaisy//src/per/dac.h **** class DacHandle
  22:../../libDaisy//src/per/dac.h **** {
  23:../../libDaisy//src/per/dac.h ****   public:
  24:../../libDaisy//src/per/dac.h ****     /** Return Values for the DacHandle class */
  25:../../libDaisy//src/per/dac.h ****     enum class Result
  26:../../libDaisy//src/per/dac.h ****     {
  27:../../libDaisy//src/per/dac.h ****         OK,
  28:../../libDaisy//src/per/dac.h ****         ERR,
  29:../../libDaisy//src/per/dac.h ****     };
  30:../../libDaisy//src/per/dac.h **** 
  31:../../libDaisy//src/per/dac.h ****     /** Selects which channel(s) will be configured for use. */
  32:../../libDaisy//src/per/dac.h ****     enum class Channel
  33:../../libDaisy//src/per/dac.h ****     {
  34:../../libDaisy//src/per/dac.h ****         ONE,
  35:../../libDaisy//src/per/dac.h ****         TWO,
  36:../../libDaisy//src/per/dac.h ****         BOTH,
  37:../../libDaisy//src/per/dac.h ****     };
  38:../../libDaisy//src/per/dac.h **** 
  39:../../libDaisy//src/per/dac.h ****     /** Sets the Mode for the DAC channels.
  40:../../libDaisy//src/per/dac.h ****      **
  41:../../libDaisy//src/per/dac.h ****      ** Polling mode uses the blocking mode to transmit a single value at a time.
  42:../../libDaisy//src/per/dac.h ****      **
  43:../../libDaisy//src/per/dac.h ****      ** DMA mode uses a buffer, and periodically transmits it triggering a 
  44:../../libDaisy//src/per/dac.h ****      ** callback to fill the buffer when it is ready for more samples.
  45:../../libDaisy//src/per/dac.h ****      ***/
ARM GAS  C:\Users\louis\AppData\Local\Temp\ccBNZUOb.s 			page 71


  46:../../libDaisy//src/per/dac.h ****     enum class Mode
  47:../../libDaisy//src/per/dac.h ****     {
  48:../../libDaisy//src/per/dac.h ****         POLLING,
  49:../../libDaisy//src/per/dac.h ****         DMA,
  50:../../libDaisy//src/per/dac.h ****     };
  51:../../libDaisy//src/per/dac.h **** 
  52:../../libDaisy//src/per/dac.h ****     /** Sets the number of bits per sample transmitted out of the DAC.
  53:../../libDaisy//src/per/dac.h ****      ** The output range will be: 0V - VDDA
  54:../../libDaisy//src/per/dac.h ****      ** The resolution will be roughly: bitdepth / (VDDA - 0V) 
  55:../../libDaisy//src/per/dac.h ****      ***/
  56:../../libDaisy//src/per/dac.h ****     enum class BitDepth
  57:../../libDaisy//src/per/dac.h ****     {
  58:../../libDaisy//src/per/dac.h ****         BITS_8,
  59:../../libDaisy//src/per/dac.h ****         BITS_12
  60:../../libDaisy//src/per/dac.h ****     };
  61:../../libDaisy//src/per/dac.h **** 
  62:../../libDaisy//src/per/dac.h ****     /** Sets whether the DAC output is buffered for higher drive ability. */
  63:../../libDaisy//src/per/dac.h ****     enum class BufferState
  64:../../libDaisy//src/per/dac.h ****     {
  65:../../libDaisy//src/per/dac.h ****         ENABLED,
  66:../../libDaisy//src/per/dac.h ****         DISABLED,
  67:../../libDaisy//src/per/dac.h ****     };
  68:../../libDaisy//src/per/dac.h **** 
  69:../../libDaisy//src/per/dac.h ****     /** Configuration structure for initializing the DAC structure. */
  70:../../libDaisy//src/per/dac.h ****     struct Config
  71:../../libDaisy//src/per/dac.h ****     {
  72:../../libDaisy//src/per/dac.h ****         /** Target Samplerate in Hz used to configure the internal 
  73:../../libDaisy//src/per/dac.h ****          ** timebase for DMA mode. Does nothing in POLLING mode.
  74:../../libDaisy//src/per/dac.h ****          ** If the value is 0 at Init time this will default to 48000Hz 
  75:../../libDaisy//src/per/dac.h ****          ** otherwise the driver will attempt meet the target.*/
  76:../../libDaisy//src/per/dac.h ****         uint32_t target_samplerate;
  77:../../libDaisy//src/per/dac.h **** 
  78:../../libDaisy//src/per/dac.h ****         Channel     chn;
  79:../../libDaisy//src/per/dac.h ****         Mode        mode;
  80:../../libDaisy//src/per/dac.h ****         BitDepth    bitdepth;
  81:../../libDaisy//src/per/dac.h ****         BufferState buff_state;
  82:../../libDaisy//src/per/dac.h ****     };
  83:../../libDaisy//src/per/dac.h **** 
  84:../../libDaisy//src/per/dac.h ****     DacHandle() : pimpl_(nullptr) {}
 2321              		.loc 14 84 5 is_stmt 1 view .LVU657
 2322              	.LBE634:
 2323              	.LBE644:
 2324              	.LBE647:
  30:test-daisy-seed.cpp **** DaisySeed hw;
 2325              		.loc 12 30 11 is_stmt 0 view .LVU658
 2326 000c 2246     		mov	r2, r4
 2327              	.LBB648:
 2328              	.LBB645:
 2329              	.LBB637:
 2330              	.LBB635:
 2331              	.LBB636:
 2332              		.loc 14 84 33 view .LVU659
 2333 000e 0362     		str	r3, [r0, #32]
 2334              	.LVL144:
 2335              		.loc 14 84 33 view .LVU660
 2336              	.LBE636:
 2337              	.LBE635:
ARM GAS  C:\Users\louis\AppData\Local\Temp\ccBNZUOb.s 			page 72


 2338              	.LBE637:
 2339              	.LBB638:
 2340              	.LBI638:
  40:../../libDaisy//src/hid/usb.h **** 
 2341              		.loc 3 40 5 is_stmt 1 view .LVU661
  40:../../libDaisy//src/hid/usb.h **** 
 2342              		.loc 3 40 5 is_stmt 0 view .LVU662
 2343              	.LBE638:
 2344              	.LBB639:
 2345              	.LBI639:
  96:../../libDaisy//src/sys/system.h ****     ~System() {}
 2346              		.loc 2 96 5 is_stmt 1 view .LVU663
  96:../../libDaisy//src/sys/system.h ****     ~System() {}
 2347              		.loc 2 96 5 is_stmt 0 view .LVU664
 2348              	.LBE639:
 2349              	.LBB640:
 2350              	.LBI640:
 2351              		.file 15 "../../libDaisy//src/per/sai.h"
   1:../../libDaisy//src/per/sai.h **** #pragma once
   2:../../libDaisy//src/per/sai.h **** #ifndef DSY_SAI_H
   3:../../libDaisy//src/per/sai.h **** #define DSY_SAI_H
   4:../../libDaisy//src/per/sai.h **** 
   5:../../libDaisy//src/per/sai.h **** #include "daisy_core.h"
   6:../../libDaisy//src/per/sai.h **** 
   7:../../libDaisy//src/per/sai.h **** namespace daisy
   8:../../libDaisy//src/per/sai.h **** {
   9:../../libDaisy//src/per/sai.h **** /** 
  10:../../libDaisy//src/per/sai.h ****  * Support for I2S Audio Protocol with different bit-depth, samplerate options
  11:../../libDaisy//src/per/sai.h ****  * Allows for master or slave, as well as freedom of selecting direction, 
  12:../../libDaisy//src/per/sai.h ****  * and other behavior for each peripheral, and block.
  13:../../libDaisy//src/per/sai.h ****  * 
  14:../../libDaisy//src/per/sai.h ****  * DMA Transfer commands must use buffers located within non-cached memory or use cache maintenance
  15:../../libDaisy//src/per/sai.h ****  * To declare an unitialized global element in the DMA memory section:
  16:../../libDaisy//src/per/sai.h ****  *    int32_t DSY_DMA_BUFFER_SECTOR my_buffer[96];
  17:../../libDaisy//src/per/sai.h ****  *
  18:../../libDaisy//src/per/sai.h ****  * Callback functions will be called once per half of the buffer. In the above example, 
  19:../../libDaisy//src/per/sai.h ****  * the callback function would be called once for every 48 samples.
  20:../../libDaisy//src/per/sai.h ****  * 
  21:../../libDaisy//src/per/sai.h ****  * Use SAI Handle like this:
  22:../../libDaisy//src/per/sai.h ****  * 
  23:../../libDaisy//src/per/sai.h ****  *  SaiHandle::Config sai_config;
  24:../../libDaisy//src/per/sai.h ****  *  sai_config.periph          = SaiHandle::Config::Peripheral::SAI_1;
  25:../../libDaisy//src/per/sai.h ****  *  sai_config.sr              = SaiHandle::Config::SampleRate::SAI_48KHZ;
  26:../../libDaisy//src/per/sai.h ****  *  sai_config.bit_depth       = SaiHandle::Config::BitDepth::SAI_24BIT;
  27:../../libDaisy//src/per/sai.h ****  *  sai_config.a_sync          = SaiHandle::Config::Sync::MASTER;
  28:../../libDaisy//src/per/sai.h ****  *  sai_config.b_sync          = SaiHandle::Config::Sync::SLAVE;
  29:../../libDaisy//src/per/sai.h ****  *  sai_config.a_dir           = SaiHandle::Config::Direction::RECEIVE;
  30:../../libDaisy//src/per/sai.h ****  *  sai_config.b_dir           = SaiHandle::Config::Direction::TRANSMIT;
  31:../../libDaisy//src/per/sai.h ****  *  sai_config.pin_config.fs   = {DSY_GPIOE, 4};
  32:../../libDaisy//src/per/sai.h ****  *  sai_config.pin_config.mclk = {DSY_GPIOE, 2};
  33:../../libDaisy//src/per/sai.h ****  *  sai_config.pin_config.sck  = {DSY_GPIOE, 5};
  34:../../libDaisy//src/per/sai.h ****  *  sai_config.pin_config.sa   = {DSY_GPIOE, 6};
  35:../../libDaisy//src/per/sai.h ****  *  sai_config.pin_config.sb   = {DSY_GPIOE, 3};
  36:../../libDaisy//src/per/sai.h ****  *  // Then Initialize
  37:../../libDaisy//src/per/sai.h ****  *  SaiHandle sai;
  38:../../libDaisy//src/per/sai.h ****  *  sai.Init(sai_config);
  39:../../libDaisy//src/per/sai.h ****  *  // Now you can use it:
ARM GAS  C:\Users\louis\AppData\Local\Temp\ccBNZUOb.s 			page 73


  40:../../libDaisy//src/per/sai.h ****  *  sai.StartDma(. . .);
  41:../../libDaisy//src/per/sai.h ****  */
  42:../../libDaisy//src/per/sai.h **** class SaiHandle
  43:../../libDaisy//src/per/sai.h **** {
  44:../../libDaisy//src/per/sai.h ****   public:
  45:../../libDaisy//src/per/sai.h ****     /** Contains settings for initialising an SAI Interface */
  46:../../libDaisy//src/per/sai.h ****     struct Config
  47:../../libDaisy//src/per/sai.h ****     {
  48:../../libDaisy//src/per/sai.h ****         /** Specifies the internal peripheral to use (mapped to different hardware pins) */
  49:../../libDaisy//src/per/sai.h ****         enum class Peripheral
  50:../../libDaisy//src/per/sai.h ****         {
  51:../../libDaisy//src/per/sai.h ****             SAI_1,
  52:../../libDaisy//src/per/sai.h ****             SAI_2,
  53:../../libDaisy//src/per/sai.h ****         };
  54:../../libDaisy//src/per/sai.h **** 
  55:../../libDaisy//src/per/sai.h ****         /** Rate at which samples will be streaming to/from the device. */
  56:../../libDaisy//src/per/sai.h ****         enum class SampleRate
  57:../../libDaisy//src/per/sai.h ****         {
  58:../../libDaisy//src/per/sai.h ****             SAI_8KHZ,
  59:../../libDaisy//src/per/sai.h ****             SAI_16KHZ,
  60:../../libDaisy//src/per/sai.h ****             SAI_32KHZ,
  61:../../libDaisy//src/per/sai.h ****             SAI_48KHZ,
  62:../../libDaisy//src/per/sai.h ****             SAI_96KHZ,
  63:../../libDaisy//src/per/sai.h ****         };
  64:../../libDaisy//src/per/sai.h **** 
  65:../../libDaisy//src/per/sai.h ****         /** Bit Depth that the hardware expects to be transferred to/from the device. */
  66:../../libDaisy//src/per/sai.h ****         enum class BitDepth
  67:../../libDaisy//src/per/sai.h ****         {
  68:../../libDaisy//src/per/sai.h ****             SAI_16BIT,
  69:../../libDaisy//src/per/sai.h ****             SAI_24BIT,
  70:../../libDaisy//src/per/sai.h ****             SAI_32BIT,
  71:../../libDaisy//src/per/sai.h ****         };
  72:../../libDaisy//src/per/sai.h **** 
  73:../../libDaisy//src/per/sai.h ****         /** Specifies whether a particular block is the master or the slave 
  74:../../libDaisy//src/per/sai.h ****          ** If both are set to slave, no MCLK signal will be used, and it is
  75:../../libDaisy//src/per/sai.h ****          ** expected that the codec will have its own xtal.
  76:../../libDaisy//src/per/sai.h ****          */
  77:../../libDaisy//src/per/sai.h ****         enum class Sync
  78:../../libDaisy//src/per/sai.h ****         {
  79:../../libDaisy//src/per/sai.h ****             MASTER,
  80:../../libDaisy//src/per/sai.h ****             SLAVE,
  81:../../libDaisy//src/per/sai.h ****         };
  82:../../libDaisy//src/per/sai.h **** 
  83:../../libDaisy//src/per/sai.h ****         /** Specifies the direction for each peripheral block. */
  84:../../libDaisy//src/per/sai.h ****         enum class Direction
  85:../../libDaisy//src/per/sai.h ****         {
  86:../../libDaisy//src/per/sai.h ****             TRANSMIT,
  87:../../libDaisy//src/per/sai.h ****             RECEIVE,
  88:../../libDaisy//src/per/sai.h ****         };
  89:../../libDaisy//src/per/sai.h **** 
  90:../../libDaisy//src/per/sai.h ****         Peripheral periph;
  91:../../libDaisy//src/per/sai.h ****         struct
  92:../../libDaisy//src/per/sai.h ****         {
  93:../../libDaisy//src/per/sai.h ****             dsy_gpio_pin mclk, fs, sck, sa, sb;
  94:../../libDaisy//src/per/sai.h ****         } pin_config;
  95:../../libDaisy//src/per/sai.h ****         SampleRate sr;
  96:../../libDaisy//src/per/sai.h ****         BitDepth   bit_depth;
ARM GAS  C:\Users\louis\AppData\Local\Temp\ccBNZUOb.s 			page 74


  97:../../libDaisy//src/per/sai.h ****         Sync       a_sync, b_sync;
  98:../../libDaisy//src/per/sai.h ****         Direction  a_dir, b_dir;
  99:../../libDaisy//src/per/sai.h ****     };
 100:../../libDaisy//src/per/sai.h **** 
 101:../../libDaisy//src/per/sai.h ****     /** Return values for SAI functions */
 102:../../libDaisy//src/per/sai.h ****     enum class Result
 103:../../libDaisy//src/per/sai.h ****     {
 104:../../libDaisy//src/per/sai.h ****         OK,
 105:../../libDaisy//src/per/sai.h ****         ERR,
 106:../../libDaisy//src/per/sai.h ****     };
 107:../../libDaisy//src/per/sai.h **** 
 108:../../libDaisy//src/per/sai.h ****     SaiHandle() : pimpl_(nullptr) {}
 2352              		.loc 15 108 5 is_stmt 1 view .LVU665
 2353              	.LBB641:
 2354              	.LBB642:
 2355              		.loc 15 108 33 is_stmt 0 view .LVU666
 2356 0010 C363     		str	r3, [r0, #60]
 2357              	.LVL145:
 2358              		.loc 15 108 33 view .LVU667
 2359              	.LBE642:
 2360              	.LBE641:
 2361              	.LBE640:
 2362              	.LBE645:
 2363              	.LBE648:
  42:test-daisy-seed.cpp **** Svf melody_filter;
 2364              		.loc 12 42 5 view .LVU668
 2365 0012 2E4F     		ldr	r7, .L59+8
  30:test-daisy-seed.cpp **** DaisySeed hw;
 2366              		.loc 12 30 11 view .LVU669
 2367 0014 2E49     		ldr	r1, .L59+12
  45:test-daisy-seed.cpp **** Oscillator lfo;
 2368              		.loc 12 45 12 view .LVU670
 2369 0016 2F4D     		ldr	r5, .L59+16
  30:test-daisy-seed.cpp **** DaisySeed hw;
 2370              		.loc 12 30 11 view .LVU671
 2371 0018 FFF7FEFF 		bl	__aeabi_atexit
 2372              	.LVL146:
 2373              	.LBB649:
 2374              	.LBI649:
  31:../../DaisySP//Source/Utility/delayline.h ****     ~DelayLine() {}
 2375              		.loc 11 31 5 is_stmt 1 view .LVU672
  31:../../DaisySP//Source/Utility/delayline.h ****     ~DelayLine() {}
 2376              		.loc 11 31 5 is_stmt 0 view .LVU673
 2377              	.LBE649:
  37:test-daisy-seed.cpp **** DelayLine<float, 48000> delay_line;
 2378              		.loc 12 37 25 view .LVU674
 2379 001c 2246     		mov	r2, r4
 2380 001e 2E49     		ldr	r1, .L59+20
 2381 0020 2E48     		ldr	r0, .L59+24
 2382 0022 FFF7FEFF 		bl	__aeabi_atexit
 2383              	.LVL147:
 2384              	.LBB650:
 2385              	.LBI650:
  29:../../DaisySP//Source/Filters/svf.h ****     ~Svf() {}
 2386              		.loc 8 29 5 is_stmt 1 view .LVU675
  29:../../DaisySP//Source/Filters/svf.h ****     ~Svf() {}
 2387              		.loc 8 29 5 is_stmt 0 view .LVU676
ARM GAS  C:\Users\louis\AppData\Local\Temp\ccBNZUOb.s 			page 75


 2388              	.LBE650:
  42:test-daisy-seed.cpp **** Svf melody_filter;
 2389              		.loc 12 42 5 view .LVU677
 2390 0026 2246     		mov	r2, r4
 2391 0028 3946     		mov	r1, r7
 2392 002a 2D48     		ldr	r0, .L59+28
 2393 002c FFF7FEFF 		bl	__aeabi_atexit
 2394              	.LVL148:
 2395              	.LBB651:
 2396              	.LBI651:
  23:../../DaisySP//Source/Synthesis/oscillator.h ****     ~Oscillator() {}
 2397              		.loc 7 23 5 is_stmt 1 view .LVU678
  23:../../DaisySP//Source/Synthesis/oscillator.h ****     ~Oscillator() {}
 2398              		.loc 7 23 5 is_stmt 0 view .LVU679
 2399              	.LBE651:
  45:test-daisy-seed.cpp **** Oscillator lfo;
 2400              		.loc 12 45 12 view .LVU680
 2401 0030 2246     		mov	r2, r4
 2402 0032 2946     		mov	r1, r5
 2403 0034 2B48     		ldr	r0, .L59+32
 2404 0036 FFF7FEFF 		bl	__aeabi_atexit
 2405              	.LVL149:
 2406              	.LBB652:
 2407              	.LBI652:
  23:../../DaisySP//Source/Synthesis/oscillator.h ****     ~Oscillator() {}
 2408              		.loc 7 23 5 is_stmt 1 view .LVU681
  23:../../DaisySP//Source/Synthesis/oscillator.h ****     ~Oscillator() {}
 2409              		.loc 7 23 5 is_stmt 0 view .LVU682
 2410              	.LBE652:
  48:test-daisy-seed.cpp **** Oscillator chord_lfo;
 2411              		.loc 12 48 12 view .LVU683
 2412 003a 2246     		mov	r2, r4
 2413 003c 2946     		mov	r1, r5
 2414 003e 2A48     		ldr	r0, .L59+36
  64:test-daisy-seed.cpp **** AdEnv env;
 2415              		.loc 12 64 7 view .LVU684
 2416 0040 2A4E     		ldr	r6, .L59+40
  48:test-daisy-seed.cpp **** Oscillator chord_lfo;
 2417              		.loc 12 48 12 view .LVU685
 2418 0042 FFF7FEFF 		bl	__aeabi_atexit
 2419              	.LVL150:
 2420              	.LBB653:
 2421              	.LBI653:
  29:../../DaisySP//Source/Filters/onepole.h ****     ~OnePole() {}
 2422              		.loc 9 29 5 is_stmt 1 view .LVU686
  29:../../DaisySP//Source/Filters/onepole.h ****     ~OnePole() {}
 2423              		.loc 9 29 5 is_stmt 0 view .LVU687
 2424              	.LBE653:
  52:test-daisy-seed.cpp **** OnePole lp_filter;
 2425              		.loc 12 52 9 view .LVU688
 2426 0046 2246     		mov	r2, r4
 2427 0048 2949     		ldr	r1, .L59+44
 2428 004a 2A48     		ldr	r0, .L59+48
 2429 004c FFF7FEFF 		bl	__aeabi_atexit
 2430              	.LVL151:
 2431              	.LBB654:
 2432              	.LBI654:
ARM GAS  C:\Users\louis\AppData\Local\Temp\ccBNZUOb.s 			page 76


  23:../../DaisySP//Source/Synthesis/oscillator.h ****     ~Oscillator() {}
 2433              		.loc 7 23 5 is_stmt 1 view .LVU689
  23:../../DaisySP//Source/Synthesis/oscillator.h ****     ~Oscillator() {}
 2434              		.loc 7 23 5 is_stmt 0 view .LVU690
 2435              	.LBE654:
  63:test-daisy-seed.cpp **** Oscillator osc;
 2436              		.loc 12 63 12 view .LVU691
 2437 0050 2246     		mov	r2, r4
 2438 0052 2946     		mov	r1, r5
 2439 0054 2848     		ldr	r0, .L59+52
 2440 0056 FFF7FEFF 		bl	__aeabi_atexit
 2441              	.LVL152:
 2442              	.LBB655:
 2443              	.LBI655:
  42:../../DaisySP//Source/Control/adenv.h ****     ~AdEnv() {}
 2444              		.loc 6 42 5 is_stmt 1 view .LVU692
  42:../../DaisySP//Source/Control/adenv.h ****     ~AdEnv() {}
 2445              		.loc 6 42 5 is_stmt 0 view .LVU693
 2446              	.LBE655:
  64:test-daisy-seed.cpp **** AdEnv env;
 2447              		.loc 12 64 7 view .LVU694
 2448 005a 2246     		mov	r2, r4
 2449 005c 3146     		mov	r1, r6
 2450 005e 2748     		ldr	r0, .L59+56
 2451 0060 FFF7FEFF 		bl	__aeabi_atexit
 2452              	.LVL153:
 2453              	.LBB656:
 2454              	.LBI656:
  23:../../DaisySP//Source/Synthesis/oscillator.h ****     ~Oscillator() {}
 2455              		.loc 7 23 5 is_stmt 1 view .LVU695
  23:../../DaisySP//Source/Synthesis/oscillator.h ****     ~Oscillator() {}
 2456              		.loc 7 23 5 is_stmt 0 view .LVU696
 2457              	.LBE656:
  67:test-daisy-seed.cpp **** Oscillator chord_osc1, chord_osc2, chord_osc3;
 2458              		.loc 12 67 12 view .LVU697
 2459 0064 2246     		mov	r2, r4
 2460 0066 2946     		mov	r1, r5
 2461 0068 2548     		ldr	r0, .L59+60
 2462 006a FFF7FEFF 		bl	__aeabi_atexit
 2463              	.LVL154:
 2464              	.LBB657:
 2465              	.LBI657:
  23:../../DaisySP//Source/Synthesis/oscillator.h ****     ~Oscillator() {}
 2466              		.loc 7 23 5 is_stmt 1 view .LVU698
  23:../../DaisySP//Source/Synthesis/oscillator.h ****     ~Oscillator() {}
 2467              		.loc 7 23 5 is_stmt 0 view .LVU699
 2468              	.LBE657:
  67:test-daisy-seed.cpp **** Oscillator chord_osc1, chord_osc2, chord_osc3;
 2469              		.loc 12 67 24 view .LVU700
 2470 006e 2246     		mov	r2, r4
 2471 0070 2946     		mov	r1, r5
 2472 0072 2448     		ldr	r0, .L59+64
 2473 0074 FFF7FEFF 		bl	__aeabi_atexit
 2474              	.LVL155:
 2475              	.LBB658:
 2476              	.LBI658:
  23:../../DaisySP//Source/Synthesis/oscillator.h ****     ~Oscillator() {}
ARM GAS  C:\Users\louis\AppData\Local\Temp\ccBNZUOb.s 			page 77


 2477              		.loc 7 23 5 is_stmt 1 view .LVU701
  23:../../DaisySP//Source/Synthesis/oscillator.h ****     ~Oscillator() {}
 2478              		.loc 7 23 5 is_stmt 0 view .LVU702
 2479              	.LBE658:
  67:test-daisy-seed.cpp **** Oscillator chord_osc1, chord_osc2, chord_osc3;
 2480              		.loc 12 67 36 view .LVU703
 2481 0078 2246     		mov	r2, r4
 2482 007a 2946     		mov	r1, r5
 2483 007c 2248     		ldr	r0, .L59+68
 2484 007e FFF7FEFF 		bl	__aeabi_atexit
 2485              	.LVL156:
 2486              	.LBB659:
 2487              	.LBI659:
  42:../../DaisySP//Source/Control/adenv.h ****     ~AdEnv() {}
 2488              		.loc 6 42 5 is_stmt 1 view .LVU704
  42:../../DaisySP//Source/Control/adenv.h ****     ~AdEnv() {}
 2489              		.loc 6 42 5 is_stmt 0 view .LVU705
 2490              	.LBE659:
  68:test-daisy-seed.cpp **** AdEnv chord_env;
 2491              		.loc 12 68 7 view .LVU706
 2492 0082 2246     		mov	r2, r4
 2493 0084 3146     		mov	r1, r6
 2494 0086 2148     		ldr	r0, .L59+72
 2495 0088 FFF7FEFF 		bl	__aeabi_atexit
 2496              	.LVL157:
 2497              	.LBB660:
 2498              	.LBI660:
  23:../../DaisySP//Source/Synthesis/oscillator.h ****     ~Oscillator() {}
 2499              		.loc 7 23 5 is_stmt 1 view .LVU707
  23:../../DaisySP//Source/Synthesis/oscillator.h ****     ~Oscillator() {}
 2500              		.loc 7 23 5 is_stmt 0 view .LVU708
 2501              	.LBE660:
  71:test-daisy-seed.cpp **** Oscillator kick_osc;
 2502              		.loc 12 71 12 view .LVU709
 2503 008c 2246     		mov	r2, r4
 2504 008e 2946     		mov	r1, r5
 2505 0090 1F48     		ldr	r0, .L59+76
 2506 0092 FFF7FEFF 		bl	__aeabi_atexit
 2507              	.LVL158:
 2508              	.LBB661:
 2509              	.LBI661:
  42:../../DaisySP//Source/Control/adenv.h ****     ~AdEnv() {}
 2510              		.loc 6 42 5 is_stmt 1 view .LVU710
  42:../../DaisySP//Source/Control/adenv.h ****     ~AdEnv() {}
 2511              		.loc 6 42 5 is_stmt 0 view .LVU711
 2512              	.LBE661:
  72:test-daisy-seed.cpp **** AdEnv kick_env;
 2513              		.loc 12 72 7 view .LVU712
 2514 0096 2246     		mov	r2, r4
 2515 0098 3146     		mov	r1, r6
 2516 009a 1E48     		ldr	r0, .L59+80
 2517 009c FFF7FEFF 		bl	__aeabi_atexit
 2518              	.LVL159:
 2519              	.LBB662:
 2520              	.LBI662:
  23:../../DaisySP//Source/Noise/whitenoise.h ****     ~WhiteNoise() {}
 2521              		.loc 10 23 5 is_stmt 1 view .LVU713
ARM GAS  C:\Users\louis\AppData\Local\Temp\ccBNZUOb.s 			page 78


  23:../../DaisySP//Source/Noise/whitenoise.h ****     ~WhiteNoise() {}
 2522              		.loc 10 23 5 is_stmt 0 view .LVU714
 2523              	.LBE662:
  75:test-daisy-seed.cpp **** WhiteNoise noise;
 2524              		.loc 12 75 12 view .LVU715
 2525 00a0 2246     		mov	r2, r4
 2526 00a2 1D49     		ldr	r1, .L59+84
 2527 00a4 1D48     		ldr	r0, .L59+88
 2528 00a6 FFF7FEFF 		bl	__aeabi_atexit
 2529              	.LVL160:
 2530              	.LBB663:
 2531              	.LBI663:
  29:../../DaisySP//Source/Filters/svf.h ****     ~Svf() {}
 2532              		.loc 8 29 5 is_stmt 1 view .LVU716
  29:../../DaisySP//Source/Filters/svf.h ****     ~Svf() {}
 2533              		.loc 8 29 5 is_stmt 0 view .LVU717
 2534              	.LBE663:
  76:test-daisy-seed.cpp **** Svf hihat_filter;
 2535              		.loc 12 76 5 view .LVU718
 2536 00aa 2246     		mov	r2, r4
 2537 00ac 3946     		mov	r1, r7
 2538 00ae 1C48     		ldr	r0, .L59+92
 2539 00b0 FFF7FEFF 		bl	__aeabi_atexit
 2540              	.LVL161:
 2541              	.LBB664:
 2542              	.LBI664:
  42:../../DaisySP//Source/Control/adenv.h ****     ~AdEnv() {}
 2543              		.loc 6 42 5 is_stmt 1 view .LVU719
  42:../../DaisySP//Source/Control/adenv.h ****     ~AdEnv() {}
 2544              		.loc 6 42 5 is_stmt 0 view .LVU720
 2545              	.LBE664:
  77:test-daisy-seed.cpp **** AdEnv hihat_env;
 2546              		.loc 12 77 7 view .LVU721
 2547 00b4 2246     		mov	r2, r4
 2548 00b6 3146     		mov	r1, r6
 2549 00b8 1A48     		ldr	r0, .L59+96
 2550              	.LBE665:
 2551              	.LBE667:
 2552              		.loc 12 285 1 view .LVU722
 2553 00ba BDE8F840 		pop	{r3, r4, r5, r6, r7, lr}
 2554              		.cfi_restore 14
 2555              		.cfi_restore 7
 2556              		.cfi_restore 6
 2557              		.cfi_restore 5
 2558              		.cfi_restore 4
 2559              		.cfi_restore 3
 2560              		.cfi_def_cfa_offset 0
 2561              	.LBB668:
 2562              	.LBB666:
  77:test-daisy-seed.cpp **** AdEnv hihat_env;
 2563              		.loc 12 77 7 view .LVU723
 2564 00be FFF7FEBF 		b	__aeabi_atexit
 2565              	.LVL162:
 2566              	.L60:
 2567 00c2 00BF     		.align	2
 2568              	.L59:
 2569 00c4 00000000 		.word	.LANCHOR28
ARM GAS  C:\Users\louis\AppData\Local\Temp\ccBNZUOb.s 			page 79


 2570 00c8 00000000 		.word	__dso_handle
 2571 00cc 00000000 		.word	_ZN7daisysp3SvfD1Ev
 2572 00d0 00000000 		.word	_ZN5daisy9DaisySeedD1Ev
 2573 00d4 00000000 		.word	_ZN7daisysp10OscillatorD1Ev
 2574 00d8 00000000 		.word	_ZN7daisysp9DelayLineIfLj48000EED1Ev
 2575 00dc 00000000 		.word	delay_line
 2576 00e0 00000000 		.word	.LANCHOR3
 2577 00e4 00000000 		.word	.LANCHOR2
 2578 00e8 00000000 		.word	.LANCHOR12
 2579 00ec 00000000 		.word	_ZN7daisysp5AdEnvD1Ev
 2580 00f0 00000000 		.word	_ZN7daisysp7OnePoleD1Ev
 2581 00f4 00000000 		.word	.LANCHOR19
 2582 00f8 00000000 		.word	.LANCHOR0
 2583 00fc 00000000 		.word	.LANCHOR1
 2584 0100 00000000 		.word	.LANCHOR8
 2585 0104 00000000 		.word	.LANCHOR9
 2586 0108 00000000 		.word	.LANCHOR10
 2587 010c 00000000 		.word	.LANCHOR11
 2588 0110 00000000 		.word	.LANCHOR15
 2589 0114 00000000 		.word	.LANCHOR14
 2590 0118 00000000 		.word	_ZN7daisysp10WhiteNoiseD1Ev
 2591 011c 00000000 		.word	.LANCHOR16
 2592 0120 00000000 		.word	.LANCHOR17
 2593 0124 00000000 		.word	.LANCHOR18
 2594              	.LBE666:
 2595              	.LBE668:
 2596              		.cfi_endproc
 2597              	.LFE5256:
 2599              		.section	.init_array,"aw",%init_array
 2600              		.align	2
 2601 0000 00000000 		.word	_GLOBAL__sub_I_note_counter(target1)
 2602              		.global	current_chord
 2603              		.global	chords
 2604              		.global	hihat_env
 2605              		.global	hihat_filter
 2606              		.global	noise
 2607              		.global	kick_env
 2608              		.global	kick_osc
 2609              		.global	chord_env
 2610              		.global	chord_osc3
 2611              		.global	chord_osc2
 2612              		.global	chord_osc1
 2613              		.global	env
 2614              		.global	osc
 2615              		.global	sidechain_env
 2616              		.global	sidechain_amount
 2617              		.global	lp_filter
 2618              		.global	chord_lfo_depth
 2619              		.global	chord_lfo
 2620              		.global	lfo
 2621              		.global	melody_filter
 2622              		.global	delay_mix
 2623              		.global	delay_feedback
 2624              		.global	delay_line
 2625              		.global	hw
 2626              		.global	samples_per_step
 2627              		.global	samples_per_chord
ARM GAS  C:\Users\louis\AppData\Local\Temp\ccBNZUOb.s 			page 80


 2628              		.global	samples_per_note
 2629              		.global	drum_counter
 2630              		.global	chord_counter
 2631              		.global	note_counter
 2632              		.section	.bss.chord_counter,"aw",%nobits
 2633              		.align	2
 2634              		.set	.LANCHOR24,. + 0
 2637              	chord_counter:
 2638 0000 00000000 		.space	4
 2639              		.section	.bss.chord_env,"aw",%nobits
 2640              		.align	2
 2641              		.set	.LANCHOR11,. + 0
 2644              	chord_env:
 2645 0000 00000000 		.space	56
 2645      00000000 
 2645      00000000 
 2645      00000000 
 2645      00000000 
 2646              		.section	.bss.chord_lfo,"aw",%nobits
 2647              		.align	2
 2648              		.set	.LANCHOR12,. + 0
 2651              	chord_lfo:
 2652 0000 00000000 		.space	44
 2652      00000000 
 2652      00000000 
 2652      00000000 
 2652      00000000 
 2653              		.section	.bss.chord_osc1,"aw",%nobits
 2654              		.align	2
 2655              		.set	.LANCHOR8,. + 0
 2658              	chord_osc1:
 2659 0000 00000000 		.space	44
 2659      00000000 
 2659      00000000 
 2659      00000000 
 2659      00000000 
 2660              		.section	.bss.chord_osc2,"aw",%nobits
 2661              		.align	2
 2662              		.set	.LANCHOR9,. + 0
 2665              	chord_osc2:
 2666 0000 00000000 		.space	44
 2666      00000000 
 2666      00000000 
 2666      00000000 
 2666      00000000 
 2667              		.section	.bss.chord_osc3,"aw",%nobits
 2668              		.align	2
 2669              		.set	.LANCHOR10,. + 0
 2672              	chord_osc3:
 2673 0000 00000000 		.space	44
 2673      00000000 
 2673      00000000 
 2673      00000000 
 2673      00000000 
 2674              		.section	.bss.current_chord,"aw",%nobits
 2675              		.align	2
 2676              		.set	.LANCHOR22,. + 0
ARM GAS  C:\Users\louis\AppData\Local\Temp\ccBNZUOb.s 			page 81


 2679              	current_chord:
 2680 0000 00000000 		.space	4
 2681              		.section	.bss.delay_line,"aw",%nobits
 2682              		.align	2
 2685              	delay_line:
 2686 0000 00000000 		.space	192012
 2686      00000000 
 2686      00000000 
 2686      00000000 
 2686      00000000 
 2687              		.section	.bss.drum_counter,"aw",%nobits
 2688              		.align	2
 2689              		.set	.LANCHOR26,. + 0
 2692              	drum_counter:
 2693 0000 00000000 		.space	4
 2694              		.section	.bss.env,"aw",%nobits
 2695              		.align	2
 2696              		.set	.LANCHOR1,. + 0
 2699              	env:
 2700 0000 00000000 		.space	56
 2700      00000000 
 2700      00000000 
 2700      00000000 
 2700      00000000 
 2701              		.section	.bss.hihat_env,"aw",%nobits
 2702              		.align	2
 2703              		.set	.LANCHOR18,. + 0
 2706              	hihat_env:
 2707 0000 00000000 		.space	56
 2707      00000000 
 2707      00000000 
 2707      00000000 
 2707      00000000 
 2708              		.section	.bss.hihat_filter,"aw",%nobits
 2709              		.align	2
 2710              		.set	.LANCHOR17,. + 0
 2713              	hihat_filter:
 2714 0000 00000000 		.space	76
 2714      00000000 
 2714      00000000 
 2714      00000000 
 2714      00000000 
 2715              		.section	.bss.hw,"aw",%nobits
 2716              		.align	2
 2717              		.set	.LANCHOR28,. + 0
 2720              	hw:
 2721 0000 00000000 		.space	64
 2721      00000000 
 2721      00000000 
 2721      00000000 
 2721      00000000 
 2722              		.section	.bss.kick_env,"aw",%nobits
 2723              		.align	2
 2724              		.set	.LANCHOR14,. + 0
 2727              	kick_env:
 2728 0000 00000000 		.space	56
 2728      00000000 
ARM GAS  C:\Users\louis\AppData\Local\Temp\ccBNZUOb.s 			page 82


 2728      00000000 
 2728      00000000 
 2728      00000000 
 2729              		.section	.bss.kick_osc,"aw",%nobits
 2730              		.align	2
 2731              		.set	.LANCHOR15,. + 0
 2734              	kick_osc:
 2735 0000 00000000 		.space	44
 2735      00000000 
 2735      00000000 
 2735      00000000 
 2735      00000000 
 2736              		.section	.bss.lfo,"aw",%nobits
 2737              		.align	2
 2738              		.set	.LANCHOR2,. + 0
 2741              	lfo:
 2742 0000 00000000 		.space	44
 2742      00000000 
 2742      00000000 
 2742      00000000 
 2742      00000000 
 2743              		.section	.bss.lp_filter,"aw",%nobits
 2744              		.align	2
 2745              		.set	.LANCHOR19,. + 0
 2748              	lp_filter:
 2749 0000 00000000 		.space	16
 2749      00000000 
 2749      00000000 
 2749      00000000 
 2750              		.section	.bss.melody_filter,"aw",%nobits
 2751              		.align	2
 2752              		.set	.LANCHOR3,. + 0
 2755              	melody_filter:
 2756 0000 00000000 		.space	76
 2756      00000000 
 2756      00000000 
 2756      00000000 
 2756      00000000 
 2757              		.section	.bss.noise,"aw",%nobits
 2758              		.align	2
 2759              		.set	.LANCHOR16,. + 0
 2762              	noise:
 2763 0000 00000000 		.space	8
 2763      00000000 
 2764              		.section	.bss.note_counter,"aw",%nobits
 2765              		.align	2
 2766              		.set	.LANCHOR20,. + 0
 2769              	note_counter:
 2770 0000 00000000 		.space	4
 2771              		.section	.bss.osc,"aw",%nobits
 2772              		.align	2
 2773              		.set	.LANCHOR0,. + 0
 2776              	osc:
 2777 0000 00000000 		.space	44
 2777      00000000 
 2777      00000000 
 2777      00000000 
ARM GAS  C:\Users\louis\AppData\Local\Temp\ccBNZUOb.s 			page 83


 2777      00000000 
 2778              		.section	.bss.samples_per_chord,"aw",%nobits
 2779              		.align	2
 2780              		.set	.LANCHOR25,. + 0
 2783              	samples_per_chord:
 2784 0000 00000000 		.space	4
 2785              		.section	.bss.samples_per_note,"aw",%nobits
 2786              		.align	2
 2787              		.set	.LANCHOR21,. + 0
 2790              	samples_per_note:
 2791 0000 00000000 		.space	4
 2792              		.section	.bss.samples_per_step,"aw",%nobits
 2793              		.align	2
 2794              		.set	.LANCHOR27,. + 0
 2797              	samples_per_step:
 2798 0000 00000000 		.space	4
 2799              		.section	.bss.sidechain_env,"aw",%nobits
 2800              		.align	2
 2801              		.set	.LANCHOR6,. + 0
 2804              	sidechain_env:
 2805 0000 00000000 		.space	4
 2806              		.section	.data.chord_lfo_depth,"aw"
 2807              		.align	2
 2808              		.set	.LANCHOR13,. + 0
 2811              	chord_lfo_depth:
 2812 0000 CDCCCC3E 		.word	1053609165
 2813              		.section	.data.chords,"aw"
 2814              		.align	2
 2815              		.set	.LANCHOR23,. + 0
 2818              	chords:
 2819 0000 00005C43 		.word	1130102784
 2820 0004 A4D08243 		.word	1132646564
 2821 0008 A4D0A443 		.word	1134874788
 2822 000c 03000000 		.word	3
 2823 0010 A4D08243 		.word	1132646564
 2824 0014 A4D0A443 		.word	1134874788
 2825 0018 0000C443 		.word	1136918528
 2826 001c 03000000 		.word	3
 2827 0020 00004443 		.word	1128529920
 2828 0024 A4F07643 		.word	1131868324
 2829 0028 7BD49243 		.word	1133696123
 2830 002c 03000000 		.word	3
 2831              		.section	.data.delay_feedback,"aw"
 2832              		.align	2
 2833              		.set	.LANCHOR4,. + 0
 2836              	delay_feedback:
 2837 0000 3333B33E 		.word	1051931443
 2838              		.section	.data.delay_mix,"aw"
 2839              		.align	2
 2840              		.set	.LANCHOR5,. + 0
 2843              	delay_mix:
 2844 0000 0000803E 		.word	1048576000
 2845              		.section	.data.sidechain_amount,"aw"
 2846              		.align	2
 2847              		.set	.LANCHOR7,. + 0
 2850              	sidechain_amount:
 2851 0000 9A99193F 		.word	1058642330
ARM GAS  C:\Users\louis\AppData\Local\Temp\ccBNZUOb.s 			page 84


 2852              		.text
 2853              	.Letext0:
 2854              		.file 16 "c:\\program files\\daisytoolchain\\arm-none-eabi\\include\\machine\\_default_types.h"
 2855              		.file 17 "c:\\program files\\daisytoolchain\\arm-none-eabi\\include\\sys\\_stdint.h"
 2856              		.file 18 "c:\\program files\\daisytoolchain\\arm-none-eabi\\include\\stdint.h"
 2857              		.file 19 "c:\\program files\\daisytoolchain\\lib\\gcc\\arm-none-eabi\\10.2.1\\include\\stddef.h"
 2858              		.file 20 "c:\\program files\\daisytoolchain\\arm-none-eabi\\include\\c++\\10.2.1\\cmath"
 2859              		.file 21 "c:\\program files\\daisytoolchain\\arm-none-eabi\\include\\c++\\10.2.1\\bits\\std_abs.h"
 2860              		.file 22 "c:\\program files\\daisytoolchain\\arm-none-eabi\\include\\c++\\10.2.1\\cstdlib"
 2861              		.file 23 "c:\\program files\\daisytoolchain\\arm-none-eabi\\include\\c++\\10.2.1\\cstdint"
 2862              		.file 24 "c:\\program files\\daisytoolchain\\arm-none-eabi\\include\\c++\\10.2.1\\type_traits"
 2863              		.file 25 "c:\\program files\\daisytoolchain\\arm-none-eabi\\include\\c++\\10.2.1\\debug\\debug.h"
 2864              		.file 26 "c:\\program files\\daisytoolchain\\arm-none-eabi\\include\\c++\\10.2.1\\arm-none-eabi\\t
 2865              		.file 27 "c:\\program files\\daisytoolchain\\arm-none-eabi\\include\\c++\\10.2.1\\bits\\algorithmf
 2866              		.file 28 "c:\\program files\\daisytoolchain\\arm-none-eabi\\include\\c++\\10.2.1\\bits\\stl_pair.h
 2867              		.file 29 "c:\\program files\\daisytoolchain\\arm-none-eabi\\include\\c++\\10.2.1\\bits\\exception_
 2868              		.file 30 "c:\\program files\\daisytoolchain\\arm-none-eabi\\include\\c++\\10.2.1\\cstdarg"
 2869              		.file 31 "c:\\program files\\daisytoolchain\\arm-none-eabi\\include\\c++\\10.2.1\\cstdio"
 2870              		.file 32 "c:\\program files\\daisytoolchain\\arm-none-eabi\\include\\c++\\10.2.1\\cstring"
 2871              		.file 33 "c:\\program files\\daisytoolchain\\arm-none-eabi\\include\\c++\\10.2.1\\cwchar"
 2872              		.file 34 "c:\\program files\\daisytoolchain\\arm-none-eabi\\include\\c++\\10.2.1\\clocale"
 2873              		.file 35 "c:\\program files\\daisytoolchain\\arm-none-eabi\\include\\c++\\10.2.1\\bits\\basic_stri
 2874              		.file 36 "c:\\program files\\daisytoolchain\\arm-none-eabi\\include\\c++\\10.2.1\\bits\\stl_tempbu
 2875              		.file 37 "c:\\program files\\daisytoolchain\\arm-none-eabi\\include\\c++\\10.2.1\\bits\\predefined
 2876              		.file 38 "c:\\program files\\daisytoolchain\\arm-none-eabi\\include\\sys\\_types.h"
 2877              		.file 39 "c:\\program files\\daisytoolchain\\arm-none-eabi\\include\\sys\\reent.h"
 2878              		.file 40 "c:\\program files\\daisytoolchain\\arm-none-eabi\\include\\sys\\lock.h"
 2879              		.file 41 "c:\\program files\\daisytoolchain\\arm-none-eabi\\include\\math.h"
 2880              		.file 42 "c:\\program files\\daisytoolchain\\arm-none-eabi\\include\\stdlib.h"
 2881              		.file 43 "c:\\program files\\daisytoolchain\\arm-none-eabi\\include\\c++\\10.2.1\\math.h"
 2882              		.file 44 "c:\\program files\\daisytoolchain\\arm-none-eabi\\include\\c++\\10.2.1\\stdlib.h"
 2883              		.file 45 "../../libDaisy//src/daisy_core.h"
 2884              		.file 46 "../../libDaisy//src/per/tim.h"
 2885              		.file 47 "../../libDaisy//src/util/wav_format.h"
 2886              		.file 48 "../../libDaisy//src/dev/max11300.h"
 2887              		.file 49 "../../libDaisy//src/per/gpio.h"
 2888              		.file 50 "../../libDaisy//src/dev/sdram.h"
 2889              		.file 51 "c:\\program files\\daisytoolchain\\lib\\gcc\\arm-none-eabi\\10.2.1\\include\\stdarg.h"
 2890              		.file 52 "c:\\program files\\daisytoolchain\\arm-none-eabi\\include\\stdio.h"
 2891              		.file 53 "c:\\program files\\daisytoolchain\\arm-none-eabi\\include\\string.h"
 2892              		.file 54 "../../DaisySP//Source/Utility/dsp.h"
 2893              		.file 55 "c:\\program files\\daisytoolchain\\arm-none-eabi\\include\\wchar.h"
 2894              		.file 56 "c:\\program files\\daisytoolchain\\arm-none-eabi\\include\\locale.h"
 2895              		.file 57 "../../libDaisy//src/dev/sr_595.h"
 2896              		.file 58 "<built-in>"
ARM GAS  C:\Users\louis\AppData\Local\Temp\ccBNZUOb.s 			page 85


DEFINED SYMBOLS
                            *ABS*:00000000 test-daisy-seed.cpp
C:\Users\louis\AppData\Local\Temp\ccBNZUOb.s:17     .text._ZN5daisy9DaisySeedD2Ev:00000000 $t
C:\Users\louis\AppData\Local\Temp\ccBNZUOb.s:26     .text._ZN5daisy9DaisySeedD2Ev:00000000 _ZN5daisy9DaisySeedD2Ev
C:\Users\louis\AppData\Local\Temp\ccBNZUOb.s:26     .text._ZN5daisy9DaisySeedD2Ev:00000000 _ZN5daisy9DaisySeedD1Ev
C:\Users\louis\AppData\Local\Temp\ccBNZUOb.s:67     .text._ZN7daisysp5AdEnvD2Ev:00000000 $t
C:\Users\louis\AppData\Local\Temp\ccBNZUOb.s:75     .text._ZN7daisysp5AdEnvD2Ev:00000000 _ZN7daisysp5AdEnvD2Ev
C:\Users\louis\AppData\Local\Temp\ccBNZUOb.s:75     .text._ZN7daisysp5AdEnvD2Ev:00000000 _ZN7daisysp5AdEnvD1Ev
C:\Users\louis\AppData\Local\Temp\ccBNZUOb.s:92     .text._ZN7daisysp10OscillatorD2Ev:00000000 $t
C:\Users\louis\AppData\Local\Temp\ccBNZUOb.s:100    .text._ZN7daisysp10OscillatorD2Ev:00000000 _ZN7daisysp10OscillatorD2Ev
C:\Users\louis\AppData\Local\Temp\ccBNZUOb.s:100    .text._ZN7daisysp10OscillatorD2Ev:00000000 _ZN7daisysp10OscillatorD1Ev
C:\Users\louis\AppData\Local\Temp\ccBNZUOb.s:117    .text._ZN7daisysp3SvfD2Ev:00000000 $t
C:\Users\louis\AppData\Local\Temp\ccBNZUOb.s:125    .text._ZN7daisysp3SvfD2Ev:00000000 _ZN7daisysp3SvfD2Ev
C:\Users\louis\AppData\Local\Temp\ccBNZUOb.s:125    .text._ZN7daisysp3SvfD2Ev:00000000 _ZN7daisysp3SvfD1Ev
C:\Users\louis\AppData\Local\Temp\ccBNZUOb.s:142    .text._ZN7daisysp7OnePoleD2Ev:00000000 $t
C:\Users\louis\AppData\Local\Temp\ccBNZUOb.s:150    .text._ZN7daisysp7OnePoleD2Ev:00000000 _ZN7daisysp7OnePoleD2Ev
C:\Users\louis\AppData\Local\Temp\ccBNZUOb.s:150    .text._ZN7daisysp7OnePoleD2Ev:00000000 _ZN7daisysp7OnePoleD1Ev
C:\Users\louis\AppData\Local\Temp\ccBNZUOb.s:167    .text._ZN7daisysp10WhiteNoiseD2Ev:00000000 $t
C:\Users\louis\AppData\Local\Temp\ccBNZUOb.s:175    .text._ZN7daisysp10WhiteNoiseD2Ev:00000000 _ZN7daisysp10WhiteNoiseD2Ev
C:\Users\louis\AppData\Local\Temp\ccBNZUOb.s:175    .text._ZN7daisysp10WhiteNoiseD2Ev:00000000 _ZN7daisysp10WhiteNoiseD1Ev
C:\Users\louis\AppData\Local\Temp\ccBNZUOb.s:192    .text._ZN7daisysp9DelayLineIfLj48000EED2Ev:00000000 $t
C:\Users\louis\AppData\Local\Temp\ccBNZUOb.s:200    .text._ZN7daisysp9DelayLineIfLj48000EED2Ev:00000000 _ZN7daisysp9DelayLineIfLj48000EED2Ev
C:\Users\louis\AppData\Local\Temp\ccBNZUOb.s:200    .text._ZN7daisysp9DelayLineIfLj48000EED2Ev:00000000 _ZN7daisysp9DelayLineIfLj48000EED1Ev
C:\Users\louis\AppData\Local\Temp\ccBNZUOb.s:217    .text._Z13AudioCallbackPKfPfj:00000000 $t
C:\Users\louis\AppData\Local\Temp\ccBNZUOb.s:225    .text._Z13AudioCallbackPKfPfj:00000000 _Z13AudioCallbackPKfPfj
C:\Users\louis\AppData\Local\Temp\ccBNZUOb.s:1038   .text._Z13AudioCallbackPKfPfj:0000034c $d
C:\Users\louis\AppData\Local\Temp\ccBNZUOb.s:2685   .bss.delay_line:00000000 delay_line
C:\Users\louis\AppData\Local\Temp\ccBNZUOb.s:1087   .text._Z13AudioCallbackPKfPfj:000003f4 $t
C:\Users\louis\AppData\Local\Temp\ccBNZUOb.s:1294   .text._Z13AudioCallbackPKfPfj:00000490 $d
C:\Users\louis\AppData\Local\Temp\ccBNZUOb.s:1307   .text._ZN7daisysp10Oscillator4InitEf:00000000 $t
C:\Users\louis\AppData\Local\Temp\ccBNZUOb.s:1315   .text._ZN7daisysp10Oscillator4InitEf:00000000 _ZN7daisysp10Oscillator4InitEf
C:\Users\louis\AppData\Local\Temp\ccBNZUOb.s:1384   .text._ZN7daisysp10Oscillator4InitEf:00000040 $d
C:\Users\louis\AppData\Local\Temp\ccBNZUOb.s:1389   .text.startup.main:00000000 $t
C:\Users\louis\AppData\Local\Temp\ccBNZUOb.s:1397   .text.startup.main:00000000 main
C:\Users\louis\AppData\Local\Temp\ccBNZUOb.s:2193   .text.startup.main:000001fc $d
C:\Users\louis\AppData\Local\Temp\ccBNZUOb.s:2232   .text.startup._GLOBAL__sub_I_note_counter:00000000 $t
C:\Users\louis\AppData\Local\Temp\ccBNZUOb.s:2239   .text.startup._GLOBAL__sub_I_note_counter:00000000 _GLOBAL__sub_I_note_counter
C:\Users\louis\AppData\Local\Temp\ccBNZUOb.s:2569   .text.startup._GLOBAL__sub_I_note_counter:000000c4 $d
C:\Users\louis\AppData\Local\Temp\ccBNZUOb.s:2600   .init_array:00000000 $d
C:\Users\louis\AppData\Local\Temp\ccBNZUOb.s:2679   .bss.current_chord:00000000 current_chord
C:\Users\louis\AppData\Local\Temp\ccBNZUOb.s:2818   .data.chords:00000000 chords
C:\Users\louis\AppData\Local\Temp\ccBNZUOb.s:2706   .bss.hihat_env:00000000 hihat_env
C:\Users\louis\AppData\Local\Temp\ccBNZUOb.s:2713   .bss.hihat_filter:00000000 hihat_filter
C:\Users\louis\AppData\Local\Temp\ccBNZUOb.s:2762   .bss.noise:00000000 noise
C:\Users\louis\AppData\Local\Temp\ccBNZUOb.s:2727   .bss.kick_env:00000000 kick_env
C:\Users\louis\AppData\Local\Temp\ccBNZUOb.s:2734   .bss.kick_osc:00000000 kick_osc
C:\Users\louis\AppData\Local\Temp\ccBNZUOb.s:2644   .bss.chord_env:00000000 chord_env
C:\Users\louis\AppData\Local\Temp\ccBNZUOb.s:2672   .bss.chord_osc3:00000000 chord_osc3
C:\Users\louis\AppData\Local\Temp\ccBNZUOb.s:2665   .bss.chord_osc2:00000000 chord_osc2
C:\Users\louis\AppData\Local\Temp\ccBNZUOb.s:2658   .bss.chord_osc1:00000000 chord_osc1
C:\Users\louis\AppData\Local\Temp\ccBNZUOb.s:2699   .bss.env:00000000 env
C:\Users\louis\AppData\Local\Temp\ccBNZUOb.s:2776   .bss.osc:00000000 osc
C:\Users\louis\AppData\Local\Temp\ccBNZUOb.s:2804   .bss.sidechain_env:00000000 sidechain_env
C:\Users\louis\AppData\Local\Temp\ccBNZUOb.s:2850   .data.sidechain_amount:00000000 sidechain_amount
C:\Users\louis\AppData\Local\Temp\ccBNZUOb.s:2748   .bss.lp_filter:00000000 lp_filter
C:\Users\louis\AppData\Local\Temp\ccBNZUOb.s:2811   .data.chord_lfo_depth:00000000 chord_lfo_depth
C:\Users\louis\AppData\Local\Temp\ccBNZUOb.s:2651   .bss.chord_lfo:00000000 chord_lfo
ARM GAS  C:\Users\louis\AppData\Local\Temp\ccBNZUOb.s 			page 86


C:\Users\louis\AppData\Local\Temp\ccBNZUOb.s:2741   .bss.lfo:00000000 lfo
C:\Users\louis\AppData\Local\Temp\ccBNZUOb.s:2755   .bss.melody_filter:00000000 melody_filter
C:\Users\louis\AppData\Local\Temp\ccBNZUOb.s:2843   .data.delay_mix:00000000 delay_mix
C:\Users\louis\AppData\Local\Temp\ccBNZUOb.s:2836   .data.delay_feedback:00000000 delay_feedback
C:\Users\louis\AppData\Local\Temp\ccBNZUOb.s:2720   .bss.hw:00000000 hw
C:\Users\louis\AppData\Local\Temp\ccBNZUOb.s:2797   .bss.samples_per_step:00000000 samples_per_step
C:\Users\louis\AppData\Local\Temp\ccBNZUOb.s:2783   .bss.samples_per_chord:00000000 samples_per_chord
C:\Users\louis\AppData\Local\Temp\ccBNZUOb.s:2790   .bss.samples_per_note:00000000 samples_per_note
C:\Users\louis\AppData\Local\Temp\ccBNZUOb.s:2692   .bss.drum_counter:00000000 drum_counter
C:\Users\louis\AppData\Local\Temp\ccBNZUOb.s:2637   .bss.chord_counter:00000000 chord_counter
C:\Users\louis\AppData\Local\Temp\ccBNZUOb.s:2769   .bss.note_counter:00000000 note_counter
C:\Users\louis\AppData\Local\Temp\ccBNZUOb.s:2633   .bss.chord_counter:00000000 $d
C:\Users\louis\AppData\Local\Temp\ccBNZUOb.s:2640   .bss.chord_env:00000000 $d
C:\Users\louis\AppData\Local\Temp\ccBNZUOb.s:2647   .bss.chord_lfo:00000000 $d
C:\Users\louis\AppData\Local\Temp\ccBNZUOb.s:2654   .bss.chord_osc1:00000000 $d
C:\Users\louis\AppData\Local\Temp\ccBNZUOb.s:2661   .bss.chord_osc2:00000000 $d
C:\Users\louis\AppData\Local\Temp\ccBNZUOb.s:2668   .bss.chord_osc3:00000000 $d
C:\Users\louis\AppData\Local\Temp\ccBNZUOb.s:2675   .bss.current_chord:00000000 $d
C:\Users\louis\AppData\Local\Temp\ccBNZUOb.s:2682   .bss.delay_line:00000000 $d
C:\Users\louis\AppData\Local\Temp\ccBNZUOb.s:2688   .bss.drum_counter:00000000 $d
C:\Users\louis\AppData\Local\Temp\ccBNZUOb.s:2695   .bss.env:00000000 $d
C:\Users\louis\AppData\Local\Temp\ccBNZUOb.s:2702   .bss.hihat_env:00000000 $d
C:\Users\louis\AppData\Local\Temp\ccBNZUOb.s:2709   .bss.hihat_filter:00000000 $d
C:\Users\louis\AppData\Local\Temp\ccBNZUOb.s:2716   .bss.hw:00000000 $d
C:\Users\louis\AppData\Local\Temp\ccBNZUOb.s:2723   .bss.kick_env:00000000 $d
C:\Users\louis\AppData\Local\Temp\ccBNZUOb.s:2730   .bss.kick_osc:00000000 $d
C:\Users\louis\AppData\Local\Temp\ccBNZUOb.s:2737   .bss.lfo:00000000 $d
C:\Users\louis\AppData\Local\Temp\ccBNZUOb.s:2744   .bss.lp_filter:00000000 $d
C:\Users\louis\AppData\Local\Temp\ccBNZUOb.s:2751   .bss.melody_filter:00000000 $d
C:\Users\louis\AppData\Local\Temp\ccBNZUOb.s:2758   .bss.noise:00000000 $d
C:\Users\louis\AppData\Local\Temp\ccBNZUOb.s:2765   .bss.note_counter:00000000 $d
C:\Users\louis\AppData\Local\Temp\ccBNZUOb.s:2772   .bss.osc:00000000 $d
C:\Users\louis\AppData\Local\Temp\ccBNZUOb.s:2779   .bss.samples_per_chord:00000000 $d
C:\Users\louis\AppData\Local\Temp\ccBNZUOb.s:2786   .bss.samples_per_note:00000000 $d
C:\Users\louis\AppData\Local\Temp\ccBNZUOb.s:2793   .bss.samples_per_step:00000000 $d
C:\Users\louis\AppData\Local\Temp\ccBNZUOb.s:2800   .bss.sidechain_env:00000000 $d
C:\Users\louis\AppData\Local\Temp\ccBNZUOb.s:2807   .data.chord_lfo_depth:00000000 $d
C:\Users\louis\AppData\Local\Temp\ccBNZUOb.s:2814   .data.chords:00000000 $d
C:\Users\louis\AppData\Local\Temp\ccBNZUOb.s:2832   .data.delay_feedback:00000000 $d
C:\Users\louis\AppData\Local\Temp\ccBNZUOb.s:2839   .data.delay_mix:00000000 $d
C:\Users\louis\AppData\Local\Temp\ccBNZUOb.s:2846   .data.sidechain_amount:00000000 $d
                           .group:00000000 _ZN5daisy9DaisySeedD5Ev
                           .group:00000000 _ZN7daisysp5AdEnvD5Ev
                           .group:00000000 _ZN7daisysp10OscillatorD5Ev
                           .group:00000000 _ZN7daisysp3SvfD5Ev
                           .group:00000000 _ZN7daisysp7OnePoleD5Ev
                           .group:00000000 _ZN7daisysp10WhiteNoiseD5Ev
                           .group:00000000 _ZN7daisysp9DelayLineIfLj48000EED5Ev

UNDEFINED SYMBOLS
_ZN7daisysp10Oscillator7ProcessEv
_ZN7daisysp5AdEnv7ProcessEv
_ZN7daisysp3Svf7SetFreqEf
_ZN7daisysp3Svf7ProcessEf
_ZN7daisysp10Oscillator12CalcPhaseIncEf
rand
_ZN5daisy9DaisySeed9ConfigureEv
ARM GAS  C:\Users\louis\AppData\Local\Temp\ccBNZUOb.s 			page 87


_ZN5daisy9DaisySeed4InitEb
_ZN5daisy9DaisySeed15AudioSampleRateEv
_ZN7daisysp5AdEnv4InitEf
_ZN7daisysp3Svf4InitEf
_ZN7daisysp3Svf6SetResEf
memset
tanf
_ZN5daisy9DaisySeed10StartAudioEPFvPKfPfjE
_ZN5daisy6System5DelayEm
__aeabi_atexit
__dso_handle
